
ae350_demo.adx:     file format elf32-littleriscv
ae350_demo.adx
architecture: riscv:rv32, flags 0x00000112:
EXEC_P, HAS_SYMS, D_PAGED
start address 0x0000000c

Program Header:
    LOAD off    0x00001000 vaddr 0x80000000 paddr 0x00000000 align 2**12
         filesz 0x00000042 memsz 0x00000042 flags r-x
    LOAD off    0x00002000 vaddr 0x0ff00000 paddr 0x00000048 align 2**12
         filesz 0x00000044 memsz 0x00000044 flags r-x
    LOAD off    0x00003000 vaddr 0x00000000 paddr 0x00000100 align 2**12
         filesz 0x00002da0 memsz 0x00003078 flags rwx
0x70000000 off    0x00005ddc vaddr 0x00000000 paddr 0x00000000 align 2**0
         filesz 0x00000044 memsz 0x00000000 flags r--

Sections:
Idx Name          Size      VMA       LMA       File off  Algn
  0 .bootloader   00000042  80000000  00000000  00001000  2**2
                  CONTENTS, ALLOC, LOAD, READONLY, CODE
  1 .loader       00000044  0ff00000  00000048  00002000  2**2
                  CONTENTS, ALLOC, LOAD, READONLY, CODE
  2 .nds_vector   0000003c  00000000  00000100  00003000  2**0
                  CONTENTS, ALLOC, LOAD, READONLY, CODE
  3 .text         000029cc  00000040  00000140  00003040  2**2
                  CONTENTS, ALLOC, LOAD, READONLY, CODE
  4 .rodata       00000264  00002a0c  00002b0c  00005a0c  2**2
                  CONTENTS, ALLOC, LOAD, READONLY, DATA
  5 .eh_frame     000000f8  00002c80  00002d80  00005c80  2**2
                  CONTENTS, ALLOC, LOAD, READONLY, DATA
  6 .data         00000000  00002d78  00002ea0  00005da0  2**0
                  CONTENTS, ALLOC, LOAD, DATA
  7 .data1        00000000  00002d78  00002ea0  00005da0  2**0
                  CONTENTS, ALLOC, LOAD, DATA
  8 .sdata        00000028  00002d78  00002e78  00005d78  2**3
                  CONTENTS, ALLOC, LOAD, READONLY, DATA
  9 .sbss         00000028  00002da0  00002ea0  00005da0  2**2
                  ALLOC
 10 .sbss_b       00000000  00002dc8  00002dc8  00005da0  2**0
                  CONTENTS
 11 .sbss_h       00000000  00002dc8  00002dc8  00005da0  2**0
                  CONTENTS
 12 .sbss_w       00000000  00002dc8  00002dc8  00005da0  2**0
                  CONTENTS
 13 .bss          000002b0  00002dc8  00002ec8  00005da0  2**2
                  ALLOC
 14 .comment      0000003c  00000000  00000000  00005da0  2**0
                  CONTENTS, READONLY
 15 .riscv.attributes 00000044  00000000  00000000  00005ddc  2**0
                  CONTENTS, READONLY
 16 .debug_aranges 000008f0  00000000  00000000  00005e20  2**3
                  CONTENTS, READONLY, DEBUGGING
 17 .debug_info   000111aa  00000000  00000000  00006710  2**0
                  CONTENTS, READONLY, DEBUGGING
 18 .debug_abbrev 00002d6f  00000000  00000000  000178ba  2**0
                  CONTENTS, READONLY, DEBUGGING
 19 .debug_line   00011c47  00000000  00000000  0001a629  2**0
                  CONTENTS, READONLY, DEBUGGING
 20 .debug_frame  00001734  00000000  00000000  0002c270  2**2
                  CONTENTS, READONLY, DEBUGGING
 21 .debug_str    0001e300  00000000  00000000  0002d9a4  2**0
                  CONTENTS, READONLY, DEBUGGING
 22 .debug_loc    00007f73  00000000  00000000  0004bca4  2**0
                  CONTENTS, READONLY, DEBUGGING
 23 .debug_ranges 00000be8  00000000  00000000  00053c17  2**0
                  CONTENTS, READONLY, DEBUGGING
 24 .debug_macro  00005196  00000000  00000000  000547ff  2**0
                  CONTENTS, READONLY, DEBUGGING
SYMBOL TABLE:
80000000 l    d  .bootloader	00000000 .bootloader
0ff00000 l    d  .loader	00000000 .loader
00000000 l    d  .nds_vector	00000000 .nds_vector
00000040 l    d  .text	00000000 .text
00002a0c l    d  .rodata	00000000 .rodata
00002c80 l    d  .eh_frame	00000000 .eh_frame
00002d78 l    d  .data	00000000 .data
00002d78 l    d  .data1	00000000 .data1
00002d78 l    d  .sdata	00000000 .sdata
00002da0 l    d  .sbss	00000000 .sbss
00002dc8 l    d  .sbss_b	00000000 .sbss_b
00002dc8 l    d  .sbss_h	00000000 .sbss_h
00002dc8 l    d  .sbss_w	00000000 .sbss_w
00002dc8 l    d  .bss	00000000 .bss
00000000 l    d  .comment	00000000 .comment
00000000 l    d  .riscv.attributes	00000000 .riscv.attributes
00000000 l    d  .debug_aranges	00000000 .debug_aranges
00000000 l    d  .debug_info	00000000 .debug_info
00000000 l    d  .debug_abbrev	00000000 .debug_abbrev
00000000 l    d  .debug_line	00000000 .debug_line
00000000 l    d  .debug_frame	00000000 .debug_frame
00000000 l    d  .debug_str	00000000 .debug_str
00000000 l    d  .debug_loc	00000000 .debug_loc
00000000 l    d  .debug_ranges	00000000 .debug_ranges
00000000 l    d  .debug_macro	00000000 .debug_macro
00000000 l    df *ABS*	00000000 loader.c
00000000 l    df *ABS*	00000000 ae350.c
00000000 l    df *ABS*	00000000 cache.c
00000104 l     F .text	00000046 ae350_l1c_dcache_writeback_range
0000014c l     F .text	00000046 ae350_l1c_dcache_invalidate_range
00000194 l     F .text	00000046 ae350_l1c_dcache_flush_range
00000214 l     F .text	000000fc ae350_dcache_invalidate_partial_line
00000000 l    df *ABS*	00000000 initfini.c
00000000 l    df *ABS*	00000000 interrupt.c
00000000 l    df *ABS*	00000000 reset.c
00000000 l    df *ABS*	00000000 trap.c
00000000 l    df *ABS*	00000000 dma_ae350.c
00002dc8 l     O .bss	000000a0 channel_info
00002da8 l     O .sbss	00000004 channel_active
00000000 l    df *ABS*	00000000 gpio_ae350.c
00000c98 l     F .text	000000ce gpio_set_intr_mode
00002dac l     O .sbss	00000004 gpio_info
00000000 l    df *ABS*	00000000 i2c_ae350.c
00002b38 l     O .rodata	00000010 I2C_Resources
00002e68 l     O .bss	0000014c I2C_Info
00000000 l    df *ABS*	00000000 rtc_ae350.c
00000000 l    df *ABS*	00000000 spi_ae350.c
00002b48 l     O .rodata	00000018 spi_resources
00001740 l     F .text	0000024e spix_irq_handler
00002fd8 l     O .bss	00000040 spi_info
00000000 l    df *ABS*	00000000 uart_ae350.c
000019a0 l     F .text	00000052 uart_rxline_irq_handler
000019f4 l     F .text	0000018e uart_irq_handler
00001b84 l     F .text	0000002c uart_dma_tx_event
00001bb4 l     F .text	0000002c uart_dma_rx_event
00002b7c l     O .rodata	0000001c uart1_resources
00002b60 l     O .rodata	0000001c uart2_resources
00002d88 l     O .sdata	00000008 uart2_dma_tx
00002d80 l     O .sdata	00000008 uart2_dma_rx
00003018 l     O .bss	00000030 uart2_info
00002d98 l     O .sdata	00000008 uart1_dma_tx
00002d90 l     O .sdata	00000008 uart1_dma_rx
00003048 l     O .bss	00000030 uart1_info
00000000 l    df *ABS*	00000000 wdt_ae350.c
00002db4 l     O .sbss	00000008 wdt_info
00001c44 l     F .text	00000012 wdt_get_status
00000000 l    df *ABS*	00000000 delay.c
00001c70 l     F .text	00000006 get_core_freq
00001c78 l     F .text	00000012 rdmcycle
00000000 l    df *ABS*	00000000 uart.c
00000000 l    df *ABS*	00000000 demo_led.c
00000000 l    df *ABS*	00000000 main.c
00000000 l    df *ABS*	00000000 write.c
00000000 l    df *ABS*	00000000 libgcc2.c
00000000 l    df *ABS*	00000000 init.c
00000000 l    df *ABS*	00000000 printf.c
00000000 l    df *ABS*	00000000 vprintf.c
00001f50 l     F .text	00000038 __vprintf_help
00002dbc l     O .sbss	00000004 __vprintf_buf_len
00002dc0 l     O .sbss	00000004 __vprintf_buf
00000000 l    df *ABS*	00000000 printf_impl.c
00000000 l    df *ABS*	00000000 printf_impl_float.c
00000000 l    df *ABS*	00000000 strnlen.c
00000000 l    df *ABS*	00000000 libgcc2.c
00000000 l    df *ABS*	00000000 libgcc2.c
00000000 l    df *ABS*	00000000 printf_data.c
00000000 l    df *ABS*	00000000 libgcc2.c
00000000 l    df *ABS*	00000000 libgcc2.c
00000fc8 g     F .text	0000003e gpio_initialize
00000454  w    F .text	00000012 gp0_irq_handler
000028fc g     F .text	00000036 strcpy
0000297c g     F .text	0000002e .hidden __ashldi3
00000454  w    F .text	00000012 gp4_irq_handler
000004a0  w    F .text	00000016 reset_handler
00000454  w    F .text	00000012 pit_irq_handler
00001f32 g     F .text	0000001e printf
00003578 g       .sdata	00000000 __global_pointer$
000029b4 g     F .text	00000028 .hidden __riscv_save_8
00001c04 g     F .text	00000010 uart2_dma_tx_event
00002a00 g     F .text	0000000c .hidden __riscv_restore_3
00000070 g     F .text	0000001a c_startup
000029ec g     F .text	00000020 .hidden __riscv_restore_10
00000454  w    F .text	00000012 gp2_irq_handler
00001be4 g     F .text	00000010 uart1_dma_tx_event
0000008c g     F .text	00000032 system_init
0000008c g       *ABS*	00000000 __loader_lmaend
000029b4 g     F .text	00000028 .hidden __riscv_save_11
00000454  w    F .text	00000012 gp10_irq_handler
00001fca g     F .text	00000048 __print_integral
00000dbc g     F .text	00000008 gpio_read
00002012 g     F .text	0000044c __printf_impl_lite
000003c4 g     F .text	00000084 ae350_dma_invalidate_range2
00001bf4 g     F .text	00000010 uart1_dma_rx_event
00002fb4 g     O .bss	00000024 g_rRtc_Info
00000000 g       .nds_vector	00000000 __text_start
000001f8 g     F .text	0000001a ae350_dcache_invalidate_range
00002a00 g     F .text	0000000c .hidden __riscv_restore_2
00001cbc g     F .text	0000002e simple_delay_ms
00001190 g     F .text	000001de i2c_cmpl_handler
00000da4 g     F .text	00000014 gpio_write
0000104c g     F .text	00000016 i2cx_signalevent
00002012 g     F .text	0000044c __printf_impl
00000454  w    F .text	00000012 gp13_irq_handler
000009c8 g     F .text	00000034 dma_channel_get_count
00000454  w    F .text	00000012 gp3_irq_handler
00001d28 g     F .text	0000007a demo_led
00000dc8 g     F .text	00000020 gpio_setdir
000029ac g     F .text	00000030 .hidden __riscv_save_12
00000454  w    F .text	00000012 gp9_irq_handler
00000000 g       *ABS*	00000000 NDS_SAG_LMA_HEAD
000029ec g     F .text	00000020 .hidden __riscv_restore_11
000029dc g     F .text	0000000c .hidden __riscv_save_1
00002a00 g     F .text	0000000c .hidden __riscv_restore_0
000029c2 g     F .text	0000001a .hidden __riscv_save_7
000010dc g     F .text	0000004a i2cx_master_fifo_read
000008e8 g     F .text	000000e0 dma_channel_abort
00000100 g       *ABS*	00000000 __text_lmastart
000029f6 g     F .text	00000016 .hidden __riscv_restore_5
00001e5e g     F .text	0000004c __libc_init_array
00000454  w    F .text	00000012 gp11_irq_handler
0000044c g     F .text	00000002 _init
00002932 g     F .text	00000018 strnlen
000029f6 g     F .text	00000016 .hidden __riscv_restore_6
00000314 g     F .text	0000001a ae350_dcache_flush_range
00000454  w    F .text	00000012 standby_irq_handler
00000000 g       .nds_vector	00000000 reset_vector
00000100 g       *ABS*	00000000 NDS_SAG_LMA_MEM
000004c4  w    F .text	00000006 mswi_handler
00000f9c g     F .text	00000028 gpio_uninitialize
000016d0 g     F .text	00000050 rtc_period_irq_handler
0000003a  w      .nds_vector	00000000 trap_handler
000013a4 g     F .text	000000c2 i2cx_slave_addr_hit_handler
00000454  w    F .text	00000012 gp8_irq_handler
0000294c g     F .text	0000002e .hidden __lshrdi3
00000d68 g     F .text	0000000a gpio_get_version
000029b4 g     F .text	00000028 .hidden __riscv_save_9
00001f88 g     F .text	00000042 vprintf
000029c2 g     F .text	0000001a .hidden __riscv_save_4
00001c34 g     F .text	00000010 uart2_irq_handler
00000d74 g     F .text	0000001e gpio_pinwrite
00002db0 g     O .sbss	00000004 check
000001dc g     F .text	0000001a ae350_dcache_writeback_range
00001cec g     F .text	00000036 uart_init
000029dc g     F .text	0000000c .hidden __riscv_save_3
0000000c g     F .nds_vector	00000000 _start
000004b8  w    F .text	0000000a mtime_handler
000016a8 g     F .text	00000010 i2c_irq_handler
00002bd4 g     O .rodata	00000010 __digits
00000330 g     F .text	0000000c ae350_dma_writeback_range
00001064 g     F .text	0000004e i2cx_master_fifo_write
00000454  w    F .text	00000012 wakeup_irq_handler
00000040 g     F .text	0000002e __platform_init
00000dec g     F .text	0000015e gpio_control
0000033c g     F .text	00000084 ae350_dma_invalidate_range
00002dc4 g     O .sbss	00000004 __printf_count
00001e0c g     F .text	00000052 .hidden __floatundisf
00001724 g     F .text	0000001c rtc_alarm_irq_handler
000029b4 g     F .text	00000028 .hidden __riscv_save_10
0000247e g     F .text	00000086 __print_integral_poly
00002b10 g     O .rodata	00000028 Driver_GPIO
000029f6 g     F .text	00000016 .hidden __riscv_restore_4
000029ec g     F .text	00000020 .hidden __riscv_restore_8
00000f4c g     F .text	0000004e gpio_get_status
00000454 g     F .text	00000012 default_irq_handler
000029c2 g     F .text	0000001a .hidden __riscv_save_6
00000454  w    F .text	00000012 gp1_irq_handler
00000454  w    F .text	00000012 gp12_irq_handler
00000840 g     F .text	000000a8 dma_channel_disable
00001128 g     F .text	00000064 i2cx_slave_fifo_read
80000000  w      .bootloader	00000000 _RELAX_END_
00002da0 g       .sbss	00000000 __bss_start
00002504 g     F .text	000003f8 __printf_float_impl
00001eac g     F .text	00000086 memset
000029ec g     F .text	00000020 .hidden __riscv_restore_9
000029f6 g     F .text	00000016 .hidden __riscv_restore_7
00001da4 g     F .text	0000000a main
0000050c g     F .text	00000178 trap_entry
0ff00000 g       .loader	00000000 __loader_start
00002d78 g       .eh_frame	00000000 __init_array_end
00001c8c g     F .text	00000030 time
00000048 g       *ABS*	00000000 __loader_lmastart
000016b8 g     F .text	00000016 rtc_signal_event
00000048 g       *ABS*	00000000 NDS_SAG_LMA_LDSECTION
00000454  w    F .text	00000012 gp15_irq_handler
00001468 g     F .text	00000240 i2cx_irq_handler
000010b4 g     F .text	00000026 i2cx_fifo_empty_handler
00000450 g     F .text	00000002 _fini
00001f32 g     F .text	0000001e iprintf
00002da0 g     O .sbss	00000008 cache_info
00000454  w    F .text	00000012 gp14_irq_handler
00002d78 g       .eh_frame	00000000 __preinit_array_end
0ff00000 g     F .loader	00000044 loader
00002a28 g     O .rodata	00000080 irq_handler
000029dc g     F .text	0000000c .hidden __riscv_save_2
00001008 g     F .text	00000042 gpio_irq_handler
000000c0 g     F .text	00000042 get_cache_info
000029c2 g     F .text	0000001a .hidden __riscv_save_5
00000d94 g     F .text	0000000e gpio_pinread
00000454  w    F .text	00000012 gp6_irq_handler
00001dc4 g     F .text	00000048 _write
00000688 g     F .text	000001b4 dma_channel_configure
00002da0 g       .sbss	00000000 _edata
80000000 g       .bootloader	00000000 __flash_start
00003078 g       .bss	00000000 _end
00001db0  w    F .text	00000014 _put_char
00001c24 g     F .text	00000010 uart1_irq_handler
00001c58 g     F .text	00000016 nmi_handler
000004cc  w    F .text	0000001c syscall_handler
00000454  w    F .text	00000012 gp5_irq_handler
00000468 g     F .text	00000036 mext_interrupt
000029e8 g     F .text	00000024 .hidden __riscv_restore_12
00002d78 g       .eh_frame	00000000 __init_array_start
000029dc g     F .text	0000000c .hidden __riscv_save_0
00000a00 g     F .text	00000298 dma_irq_handler
08000000 g       *ABS*	00000000 _stack
00002a00 g     F .text	0000000c .hidden __riscv_restore_1
00001370 g     F .text	00000032 i2cx_fifo_full_handler
00002d78 g       .eh_frame	00000000 __preinit_array_start
00001d24 g     F .text	00000002 gpio_callback_led
80000000 g     F .bootloader	00000042 boot_loader
00000454  w    F .text	00000012 gp7_irq_handler
000004ec  w    F .text	0000001e except_handler
00001990 g     F .text	00000010 spi_irq_handler
00001f88 g     F .text	00000042 viprintf
0000245e g     F .text	00000020 __int_to_poly
00001c14 g     F .text	00000010 uart2_dma_rx_event



Disassembly of section .bootloader:

80000000 <boot_loader>:
80000000:	80000797          	auipc	a5,0x80000
80000004:	04878793          	addi	a5,a5,72 # 48 <NDS_SAG_LMA_LDSECTION>
80000008:	80000597          	auipc	a1,0x80000
8000000c:	08758593          	addi	a1,a1,135 # 8f <__loader_lmaend+0x3>
80000010:	8d9d                	c.sub	a1,a5
80000012:	8189                	c.srli	a1,0x2
80000014:	00000717          	auipc	a4,0x0
80000018:	fec70713          	addi	a4,a4,-20 # 80000000 <boot_loader>
8000001c:	97ba                	c.add	a5,a4
8000001e:	4701                	c.li	a4,0
80000020:	8ff00697          	auipc	a3,0x8ff00
80000024:	fe068693          	addi	a3,a3,-32 # ff00000 <loader>
80000028:	a039                	c.j	80000036 <boot_loader+0x36>
8000002a:	4390                	c.lw	a2,0(a5)
8000002c:	c290                	c.sw	a2,0(a3)
8000002e:	0705                	c.addi	a4,1
80000030:	0691                	c.addi	a3,4
80000032:	0791                	c.addi	a5,4
80000034:	0001                	c.nop
80000036:	feb76ae3          	bltu	a4,a1,8000002a <boot_loader+0x2a>
8000003a:	8ff00097          	auipc	ra,0x8ff00
8000003e:	fc6080e7          	jalr	-58(ra) # ff00000 <loader>

Disassembly of section .loader:

0ff00000 <loader>:
 ff00000:	f0100797          	auipc	a5,0xf0100
 ff00004:	00078793          	mv	a5,a5
 ff00008:	f0103597          	auipc	a1,0xf0103
 ff0000c:	d9b58593          	addi	a1,a1,-613 # 2da3 <cache_info+0x3>
 ff00010:	8d9d                	c.sub	a1,a5
 ff00012:	8189                	c.srli	a1,0x2
 ff00014:	70100717          	auipc	a4,0x70100
 ff00018:	fec70713          	addi	a4,a4,-20 # 80000000 <boot_loader>
 ff0001c:	f0100697          	auipc	a3,0xf0100
 ff00020:	0e468693          	addi	a3,a3,228 # 100 <NDS_SAG_LMA_MEM>
 ff00024:	9736                	c.add	a4,a3
 ff00026:	4681                	c.li	a3,0
 ff00028:	a801                	c.j	ff00038 <loader+0x38>
 ff0002a:	0001                	c.nop
 ff0002c:	4310                	c.lw	a2,0(a4)
 ff0002e:	c390                	c.sw	a2,0(a5)
 ff00030:	0685                	c.addi	a3,1
 ff00032:	0791                	c.addi	a5,4
 ff00034:	0711                	c.addi	a4,4
 ff00036:	0001                	c.nop
 ff00038:	feb6eae3          	bltu	a3,a1,ff0002c <loader+0x2c>
 ff0003c:	f0100097          	auipc	ra,0xf0100
 ff00040:	fd0080e7          	jalr	-48(ra) # c <_start>

Disassembly of section .nds_vector:

00000000 <__text_start>:
   0:	342022f3          	csrr	t0,mcause
   4:	00028463          	beqz	t0,c <_start>
   8:	4510106f          	j	1c58 <nmi_handler>

0000000c <_start>:
   c:	00003197          	auipc	gp,0x3
  10:	56c18193          	addi	gp,gp,1388 # 3578 <__global_pointer$>
  14:	08000297          	auipc	t0,0x8000
  18:	fec28293          	addi	t0,t0,-20 # 8000000 <_stack>
  1c:	8116                	c.mv	sp,t0
  1e:	6299                	c.lui	t0,0x6
  20:	3002a2f3          	csrrs	t0,mstatus,t0
  24:	00301073          	fssr	zero
  28:	f959928b          	addigp	t0,-12396 # 50c <trap_entry>
  2c:	30529073          	csrw	mtvec,t0
  30:	2801                	c.jal	40 <__platform_init>
  32:	21bd                	c.jal	4a0 <reset_handler>
  34:	a001                	c.j	34 <_start+0x28>
  36:	8082                	c.jr	ra
  38:	a001                	c.j	38 <_start+0x2c>

0000003a <trap_handler>:
  3a:	a001                	c.j	3a <trap_handler>

Disassembly of section .text:

00000040 <__platform_init>:
      40:	6799                	c.lui	a5,0x6
      42:	7ca7b7f3          	csrrc	a5,mcache_ctl,a5
      46:	000827b7          	lui	a5,0x82
      4a:	60378793          	addi	a5,a5,1539 # 82603 <__global_pointer$+0x7f08b>
      4e:	7ca7a7f3          	csrrs	a5,mcache_ctl,a5
      52:	7ca027f3          	csrr	a5,mcache_ctl
      56:	00080737          	lui	a4,0x80
      5a:	8ff9                	c.and	a5,a4
      5c:	00078863          	beqz	a5,6c <NDS_SAG_LMA_LDSECTION+0x24>
      60:	7ca027f3          	csrr	a5,mcache_ctl
      64:	00100737          	lui	a4,0x100
      68:	8ff9                	c.and	a5,a4
      6a:	dbfd                	c.beqz	a5,60 <NDS_SAG_LMA_LDSECTION+0x18>
      6c:	8082                	c.jr	ra
      6e:	0001                	c.nop

00000070 <c_startup>:
      70:	1141                	c.addi	sp,-16
      72:	c606                	c.swsp	ra,12(sp)
      74:	829f950b          	addigp	a0,-2008 # 2da0 <cache_info>
      78:	b01f960b          	addigp	a2,-1280 # 3078 <_end>
      7c:	8e09                	c.sub	a2,a0
      7e:	4581                	c.li	a1,0
      80:	62d010ef          	jal	ra,1eac <memset>
      84:	40b2                	c.lwsp	ra,12(sp)
      86:	0141                	c.addi	sp,16
      88:	8082                	c.jr	ra
      8a:	0001                	c.nop

0000008c <system_init>:
      8c:	a899970b          	addigp	a4,-13688 # 0 <NDS_SAG_LMA_HEAD>
      90:	f01007b7          	lui	a5,0xf0100
      94:	cbb8                	c.sw	a4,80(a5)
      96:	7d0027f3          	csrr	a5,mmisc_ctl
      9a:	8b89                	c.andi	a5,2
      9c:	cf81                	c.beqz	a5,b4 <system_init+0x28>
      9e:	e40007b7          	lui	a5,0xe4000
      a2:	470d                	c.li	a4,3
      a4:	00e7a023          	sw	a4,0(a5) # e4000000 <boot_loader+0x64000000>
      a8:	14000793          	li	a5,320
      ac:	7d07a7f3          	csrrs	a5,mmisc_ctl,a5
      b0:	00008067          	ret
      b4:	e40007b7          	lui	a5,0xe4000
      b8:	4705                	c.li	a4,1
      ba:	c398                	c.sw	a4,0(a5)
      bc:	b7f5                	c.j	a8 <system_init+0x1c>
      be:	0001                	c.nop

000000c0 <get_cache_info>:
      c0:	300477f3          	csrrci	a5,mstatus,8
      c4:	8ba1                	c.andi	a5,8
      c6:	829fa70b          	lbugp	a4,-2008 # 2da0 <cache_info>
      ca:	e70d                	c.bnez	a4,f4 <get_cache_info+0x34>
      cc:	fc102773          	csrr	a4,mdcm_cfg
      d0:	8319                	c.srli	a4,0x6
      d2:	8b1d                	c.andi	a4,7
      d4:	fff70613          	addi	a2,a4,-1 # fffff <__global_pointer$+0xfca87>
      d8:	4691                	c.li	a3,4
      da:	02c6e163          	bltu	a3,a2,fc <get_cache_info+0x3c>
      de:	0709                	c.addi	a4,2
      e0:	00100693          	li	a3,1
      e4:	00e69733          	sll	a4,a3,a4
      e8:	82efc7ab          	swgp	a4,-2004 # 2da4 <cache_info+0x4>
      ec:	00100713          	li	a4,1
      f0:	82efb48b          	sbgp	a4,-2008 # 2da0 <cache_info>
      f4:	3007a7f3          	csrrs	a5,mstatus,a5
      f8:	00008067          	ret
      fc:	820fc7ab          	swgp	zero,-2004 # 2da4 <cache_info+0x4>
     100:	b7f5                	c.j	ec <get_cache_info+0x2c>
     102:	0001                	c.nop

00000104 <ae350_l1c_dcache_writeback_range>:
     104:	1141                	c.addi	sp,-16
     106:	c606                	c.swsp	ra,12(sp)
     108:	c422                	c.swsp	s0,8(sp)
     10a:	c226                	c.swsp	s1,4(sp)
     10c:	84aa                	c.mv	s1,a0
     10e:	842e                	c.mv	s0,a1
     110:	829fa78b          	lbugp	a5,-2008 # 2da0 <cache_info>
     114:	00078c63          	beqz	a5,12c <ae350_l1c_dcache_writeback_range+0x28>
     118:	82ffa6ab          	lwgp	a3,-2004 # 2da4 <cache_info+0x4>
     11c:	00848733          	add	a4,s1,s0
     120:	177d                	c.addi	a4,-1
     122:	40d007b3          	neg	a5,a3
     126:	0097f533          	and	a0,a5,s1
     12a:	a809                	c.j	13c <ae350_l1c_dcache_writeback_range+0x38>
     12c:	3f51                	c.jal	c0 <get_cache_info>
     12e:	b7ed                	c.j	118 <ae350_l1c_dcache_writeback_range+0x14>
     130:	7cb51073          	csrw	mcctlbeginaddr,a0
     134:	7cc0d073          	csrwi	mcctlcommand,1
     138:	00d50533          	add	a0,a0,a3
     13c:	fea77ae3          	bgeu	a4,a0,130 <ae350_l1c_dcache_writeback_range+0x2c>
     140:	40b2                	c.lwsp	ra,12(sp)
     142:	4422                	c.lwsp	s0,8(sp)
     144:	4492                	c.lwsp	s1,4(sp)
     146:	0141                	c.addi	sp,16
     148:	8082                	c.jr	ra
     14a:	0001                	c.nop

0000014c <ae350_l1c_dcache_invalidate_range>:
     14c:	1141                	c.addi	sp,-16
     14e:	c606                	c.swsp	ra,12(sp)
     150:	c422                	c.swsp	s0,8(sp)
     152:	c226                	c.swsp	s1,4(sp)
     154:	84aa                	c.mv	s1,a0
     156:	842e                	c.mv	s0,a1
     158:	829fa78b          	lbugp	a5,-2008 # 2da0 <cache_info>
     15c:	00078c63          	beqz	a5,174 <ae350_l1c_dcache_invalidate_range+0x28>
     160:	82ffa6ab          	lwgp	a3,-2004 # 2da4 <cache_info+0x4>
     164:	00848733          	add	a4,s1,s0
     168:	177d                	c.addi	a4,-1
     16a:	40d007b3          	neg	a5,a3
     16e:	0097f533          	and	a0,a5,s1
     172:	a809                	c.j	184 <ae350_l1c_dcache_invalidate_range+0x38>
     174:	37b1                	c.jal	c0 <get_cache_info>
     176:	b7ed                	c.j	160 <ae350_l1c_dcache_invalidate_range+0x14>
     178:	7cb51073          	csrw	mcctlbeginaddr,a0
     17c:	7cc05073          	csrwi	mcctlcommand,0
     180:	00d50533          	add	a0,a0,a3
     184:	fea77ae3          	bgeu	a4,a0,178 <ae350_l1c_dcache_invalidate_range+0x2c>
     188:	40b2                	c.lwsp	ra,12(sp)
     18a:	4422                	c.lwsp	s0,8(sp)
     18c:	4492                	c.lwsp	s1,4(sp)
     18e:	0141                	c.addi	sp,16
     190:	8082                	c.jr	ra
     192:	0001                	c.nop

00000194 <ae350_l1c_dcache_flush_range>:
     194:	1141                	c.addi	sp,-16
     196:	c606                	c.swsp	ra,12(sp)
     198:	c422                	c.swsp	s0,8(sp)
     19a:	c226                	c.swsp	s1,4(sp)
     19c:	84aa                	c.mv	s1,a0
     19e:	842e                	c.mv	s0,a1
     1a0:	829fa78b          	lbugp	a5,-2008 # 2da0 <cache_info>
     1a4:	00078c63          	beqz	a5,1bc <ae350_l1c_dcache_flush_range+0x28>
     1a8:	82ffa6ab          	lwgp	a3,-2004 # 2da4 <cache_info+0x4>
     1ac:	00848733          	add	a4,s1,s0
     1b0:	177d                	c.addi	a4,-1
     1b2:	40d007b3          	neg	a5,a3
     1b6:	0097f533          	and	a0,a5,s1
     1ba:	a809                	c.j	1cc <ae350_l1c_dcache_flush_range+0x38>
     1bc:	3711                	c.jal	c0 <get_cache_info>
     1be:	b7ed                	c.j	1a8 <ae350_l1c_dcache_flush_range+0x14>
     1c0:	7cb51073          	csrw	mcctlbeginaddr,a0
     1c4:	7cc15073          	csrwi	mcctlcommand,2
     1c8:	00d50533          	add	a0,a0,a3
     1cc:	fea77ae3          	bgeu	a4,a0,1c0 <ae350_l1c_dcache_flush_range+0x2c>
     1d0:	40b2                	c.lwsp	ra,12(sp)
     1d2:	4422                	c.lwsp	s0,8(sp)
     1d4:	4492                	c.lwsp	s1,4(sp)
     1d6:	0141                	c.addi	sp,16
     1d8:	8082                	c.jr	ra
     1da:	0001                	c.nop

000001dc <ae350_dcache_writeback_range>:
     1dc:	1141                	c.addi	sp,-16
     1de:	c606                	c.swsp	ra,12(sp)
     1e0:	c422                	c.swsp	s0,8(sp)
     1e2:	30047473          	csrrci	s0,mstatus,8
     1e6:	8821                	c.andi	s0,8
     1e8:	3f31                	c.jal	104 <ae350_l1c_dcache_writeback_range>
     1ea:	30042473          	csrrs	s0,mstatus,s0
     1ee:	40b2                	c.lwsp	ra,12(sp)
     1f0:	4422                	c.lwsp	s0,8(sp)
     1f2:	0141                	c.addi	sp,16
     1f4:	8082                	c.jr	ra
     1f6:	0001                	c.nop

000001f8 <ae350_dcache_invalidate_range>:
     1f8:	1141                	c.addi	sp,-16
     1fa:	c606                	c.swsp	ra,12(sp)
     1fc:	c422                	c.swsp	s0,8(sp)
     1fe:	30047473          	csrrci	s0,mstatus,8
     202:	8821                	c.andi	s0,8
     204:	37a1                	c.jal	14c <ae350_l1c_dcache_invalidate_range>
     206:	30042473          	csrrs	s0,mstatus,s0
     20a:	40b2                	c.lwsp	ra,12(sp)
     20c:	4422                	c.lwsp	s0,8(sp)
     20e:	0141                	c.addi	sp,16
     210:	8082                	c.jr	ra
     212:	0001                	c.nop

00000214 <ae350_dcache_invalidate_partial_line>:
     214:	1101                	c.addi	sp,-32
     216:	ce06                	c.swsp	ra,28(sp)
     218:	cc22                	c.swsp	s0,24(sp)
     21a:	ca26                	c.swsp	s1,20(sp)
     21c:	c84a                	c.swsp	s2,16(sp)
     21e:	c64e                	c.swsp	s3,12(sp)
     220:	c452                	c.swsp	s4,8(sp)
     222:	c256                	c.swsp	s5,4(sp)
     224:	c05a                	c.swsp	s6,0(sp)
     226:	1000                	c.addi4spn	s0,sp,32
     228:	8a2a                	c.mv	s4,a0
     22a:	892e                	c.mv	s2,a1
     22c:	829fa78b          	lbugp	a5,-2008 # 2da0 <cache_info>
     230:	02078c63          	beqz	a5,268 <ae350_dcache_invalidate_partial_line+0x54>
     234:	82ffa9ab          	lwgp	s3,-2004 # 2da4 <cache_info+0x4>
     238:	00f98793          	addi	a5,s3,15
     23c:	9bc1                	c.andi	a5,-16
     23e:	40f10133          	sub	sp,sp,a5
     242:	848a                	c.mv	s1,sp
     244:	41300b33          	neg	s6,s3
     248:	014b7ab3          	and	s5,s6,s4
     24c:	013907b3          	add	a5,s2,s3
     250:	17fd                	c.addi	a5,-1
     252:	00fb7b33          	and	s6,s6,a5
     256:	19fd                	c.addi	s3,-1
     258:	0129f9b3          	and	s3,s3,s2
     25c:	034af463          	bgeu	s5,s4,284 <ae350_dcache_invalidate_partial_line+0x70>
     260:	415a0633          	sub	a2,s4,s5
     264:	4781                	c.li	a5,0
     266:	a829                	c.j	280 <ae350_dcache_invalidate_partial_line+0x6c>
     268:	3da1                	c.jal	c0 <get_cache_info>
     26a:	b7e9                	c.j	234 <ae350_dcache_invalidate_partial_line+0x20>
     26c:	00fa86b3          	add	a3,s5,a5
     270:	00f48733          	add	a4,s1,a5
     274:	0006c683          	lbu	a3,0(a3)
     278:	00d70023          	sb	a3,0(a4)
     27c:	00178793          	addi	a5,a5,1 # e4000001 <boot_loader+0x64000001>
     280:	fec7e6e3          	bltu	a5,a2,26c <ae350_dcache_invalidate_partial_line+0x58>
     284:	03697263          	bgeu	s2,s6,2a8 <ae350_dcache_invalidate_partial_line+0x94>
     288:	412b0633          	sub	a2,s6,s2
     28c:	4781                	c.li	a5,0
     28e:	a819                	c.j	2a4 <ae350_dcache_invalidate_partial_line+0x90>
     290:	00f906b3          	add	a3,s2,a5
     294:	00f98733          	add	a4,s3,a5
     298:	9726                	c.add	a4,s1
     29a:	0006c683          	lbu	a3,0(a3)
     29e:	00d70023          	sb	a3,0(a4)
     2a2:	0785                	c.addi	a5,1
     2a4:	fec7e6e3          	bltu	a5,a2,290 <ae350_dcache_invalidate_partial_line+0x7c>
     2a8:	4585                	c.li	a1,1
     2aa:	8552                	c.mv	a0,s4
     2ac:	37b1                	c.jal	1f8 <ae350_dcache_invalidate_range>
     2ae:	034af363          	bgeu	s5,s4,2d4 <ae350_dcache_invalidate_partial_line+0xc0>
     2b2:	415a0a33          	sub	s4,s4,s5
     2b6:	4781                	c.li	a5,0
     2b8:	0180006f          	j	2d0 <ae350_dcache_invalidate_partial_line+0xbc>
     2bc:	00f486b3          	add	a3,s1,a5
     2c0:	00fa8733          	add	a4,s5,a5
     2c4:	0006c683          	lbu	a3,0(a3)
     2c8:	00d70023          	sb	a3,0(a4)
     2cc:	00178793          	addi	a5,a5,1
     2d0:	ff47e6e3          	bltu	a5,s4,2bc <ae350_dcache_invalidate_partial_line+0xa8>
     2d4:	03697263          	bgeu	s2,s6,2f8 <ae350_dcache_invalidate_partial_line+0xe4>
     2d8:	412b0b33          	sub	s6,s6,s2
     2dc:	4781                	c.li	a5,0
     2de:	a819                	c.j	2f4 <ae350_dcache_invalidate_partial_line+0xe0>
     2e0:	00f98733          	add	a4,s3,a5
     2e4:	9726                	c.add	a4,s1
     2e6:	00f906b3          	add	a3,s2,a5
     2ea:	00074703          	lbu	a4,0(a4)
     2ee:	00e68023          	sb	a4,0(a3)
     2f2:	0785                	c.addi	a5,1
     2f4:	ff67e6e3          	bltu	a5,s6,2e0 <ae350_dcache_invalidate_partial_line+0xcc>
     2f8:	fe040113          	addi	sp,s0,-32
     2fc:	40f2                	c.lwsp	ra,28(sp)
     2fe:	4462                	c.lwsp	s0,24(sp)
     300:	44d2                	c.lwsp	s1,20(sp)
     302:	4942                	c.lwsp	s2,16(sp)
     304:	49b2                	c.lwsp	s3,12(sp)
     306:	4a22                	c.lwsp	s4,8(sp)
     308:	4a92                	c.lwsp	s5,4(sp)
     30a:	4b02                	c.lwsp	s6,0(sp)
     30c:	6105                	c.addi16sp	sp,32
     30e:	8082                	c.jr	ra
     310:	0001                	c.nop
     312:	0001                	c.nop

00000314 <ae350_dcache_flush_range>:
     314:	1141                	c.addi	sp,-16
     316:	c606                	c.swsp	ra,12(sp)
     318:	c422                	c.swsp	s0,8(sp)
     31a:	30047473          	csrrci	s0,mstatus,8
     31e:	8821                	c.andi	s0,8
     320:	3d95                	c.jal	194 <ae350_l1c_dcache_flush_range>
     322:	30042473          	csrrs	s0,mstatus,s0
     326:	40b2                	c.lwsp	ra,12(sp)
     328:	4422                	c.lwsp	s0,8(sp)
     32a:	0141                	c.addi	sp,16
     32c:	8082                	c.jr	ra
     32e:	0001                	c.nop

00000330 <ae350_dma_writeback_range>:
     330:	1141                	c.addi	sp,-16
     332:	c606                	c.swsp	ra,12(sp)
     334:	3565                	c.jal	1dc <ae350_dcache_writeback_range>
     336:	40b2                	c.lwsp	ra,12(sp)
     338:	0141                	c.addi	sp,16
     33a:	8082                	c.jr	ra

0000033c <ae350_dma_invalidate_range>:
     33c:	1101                	c.addi	sp,-32
     33e:	ce06                	c.swsp	ra,28(sp)
     340:	cc22                	c.swsp	s0,24(sp)
     342:	ca26                	c.swsp	s1,20(sp)
     344:	c84a                	c.swsp	s2,16(sp)
     346:	c64e                	c.swsp	s3,12(sp)
     348:	c452                	c.swsp	s4,8(sp)
     34a:	89aa                	c.mv	s3,a0
     34c:	892e                	c.mv	s2,a1
     34e:	30047a73          	csrrci	s4,mstatus,8
     352:	008a7a13          	andi	s4,s4,8
     356:	829fa78b          	lbugp	a5,-2008 # 2da0 <cache_info>
     35a:	cf9d                	c.beqz	a5,398 <ae350_dma_invalidate_range+0x5c>
     35c:	82ffa42b          	lwgp	s0,-2004 # 2da4 <cache_info+0x4>
     360:	994e                	c.add	s2,s3
     362:	008984b3          	add	s1,s3,s0
     366:	14fd                	c.addi	s1,-1
     368:	40800433          	neg	s0,s0
     36c:	0084f4b3          	and	s1,s1,s0
     370:	01247433          	and	s0,s0,s2
     374:	02946463          	bltu	s0,s1,39c <ae350_dma_invalidate_range+0x60>
     378:	0299e663          	bltu	s3,s1,3a4 <ae350_dma_invalidate_range+0x68>
     37c:	0284e863          	bltu	s1,s0,3ac <ae350_dma_invalidate_range+0x70>
     380:	03246c63          	bltu	s0,s2,3b8 <ae350_dma_invalidate_range+0x7c>
     384:	300a2a73          	csrrs	s4,mstatus,s4
     388:	40f2                	c.lwsp	ra,28(sp)
     38a:	4462                	c.lwsp	s0,24(sp)
     38c:	44d2                	c.lwsp	s1,20(sp)
     38e:	4942                	c.lwsp	s2,16(sp)
     390:	49b2                	c.lwsp	s3,12(sp)
     392:	4a22                	c.lwsp	s4,8(sp)
     394:	6105                	c.addi16sp	sp,32
     396:	8082                	c.jr	ra
     398:	3325                	c.jal	c0 <get_cache_info>
     39a:	b7c9                	c.j	35c <ae350_dma_invalidate_range+0x20>
     39c:	4585                	c.li	a1,1
     39e:	854e                	c.mv	a0,s3
     3a0:	3f95                	c.jal	314 <ae350_dcache_flush_range>
     3a2:	b7cd                	c.j	384 <ae350_dma_invalidate_range+0x48>
     3a4:	4585                	c.li	a1,1
     3a6:	854e                	c.mv	a0,s3
     3a8:	37b5                	c.jal	314 <ae350_dcache_flush_range>
     3aa:	bfc9                	c.j	37c <ae350_dma_invalidate_range+0x40>
     3ac:	409405b3          	sub	a1,s0,s1
     3b0:	8526                	c.mv	a0,s1
     3b2:	3599                	c.jal	1f8 <ae350_dcache_invalidate_range>
     3b4:	fcdff06f          	j	380 <ae350_dma_invalidate_range+0x44>
     3b8:	4585                	c.li	a1,1
     3ba:	854a                	c.mv	a0,s2
     3bc:	3fa1                	c.jal	314 <ae350_dcache_flush_range>
     3be:	b7d9                	c.j	384 <ae350_dma_invalidate_range+0x48>
     3c0:	0001                	c.nop
     3c2:	0001                	c.nop

000003c4 <ae350_dma_invalidate_range2>:
     3c4:	1101                	c.addi	sp,-32
     3c6:	ce06                	c.swsp	ra,28(sp)
     3c8:	cc22                	c.swsp	s0,24(sp)
     3ca:	ca26                	c.swsp	s1,20(sp)
     3cc:	c84a                	c.swsp	s2,16(sp)
     3ce:	c64e                	c.swsp	s3,12(sp)
     3d0:	c452                	c.swsp	s4,8(sp)
     3d2:	89aa                	c.mv	s3,a0
     3d4:	892e                	c.mv	s2,a1
     3d6:	30047a73          	csrrci	s4,mstatus,8
     3da:	008a7a13          	andi	s4,s4,8
     3de:	829fa78b          	lbugp	a5,-2008 # 2da0 <cache_info>
     3e2:	cf9d                	c.beqz	a5,420 <ae350_dma_invalidate_range2+0x5c>
     3e4:	82ffa42b          	lwgp	s0,-2004 # 2da4 <cache_info+0x4>
     3e8:	994e                	c.add	s2,s3
     3ea:	008984b3          	add	s1,s3,s0
     3ee:	14fd                	c.addi	s1,-1
     3f0:	40800433          	neg	s0,s0
     3f4:	0084f4b3          	and	s1,s1,s0
     3f8:	01247433          	and	s0,s0,s2
     3fc:	02946463          	bltu	s0,s1,424 <ae350_dma_invalidate_range2+0x60>
     400:	0299e663          	bltu	s3,s1,42c <ae350_dma_invalidate_range2+0x68>
     404:	0284e863          	bltu	s1,s0,434 <ae350_dma_invalidate_range2+0x70>
     408:	03246c63          	bltu	s0,s2,440 <ae350_dma_invalidate_range2+0x7c>
     40c:	300a2a73          	csrrs	s4,mstatus,s4
     410:	40f2                	c.lwsp	ra,28(sp)
     412:	4462                	c.lwsp	s0,24(sp)
     414:	44d2                	c.lwsp	s1,20(sp)
     416:	4942                	c.lwsp	s2,16(sp)
     418:	49b2                	c.lwsp	s3,12(sp)
     41a:	4a22                	c.lwsp	s4,8(sp)
     41c:	6105                	c.addi16sp	sp,32
     41e:	8082                	c.jr	ra
     420:	3145                	c.jal	c0 <get_cache_info>
     422:	b7c9                	c.j	3e4 <ae350_dma_invalidate_range2+0x20>
     424:	85ca                	c.mv	a1,s2
     426:	854e                	c.mv	a0,s3
     428:	33f5                	c.jal	214 <ae350_dcache_invalidate_partial_line>
     42a:	b7cd                	c.j	40c <ae350_dma_invalidate_range2+0x48>
     42c:	85a6                	c.mv	a1,s1
     42e:	854e                	c.mv	a0,s3
     430:	33d5                	c.jal	214 <ae350_dcache_invalidate_partial_line>
     432:	bfc9                	c.j	404 <ae350_dma_invalidate_range2+0x40>
     434:	409405b3          	sub	a1,s0,s1
     438:	8526                	c.mv	a0,s1
     43a:	3b7d                	c.jal	1f8 <ae350_dcache_invalidate_range>
     43c:	fcdff06f          	j	408 <ae350_dma_invalidate_range2+0x44>
     440:	85ca                	c.mv	a1,s2
     442:	8522                	c.mv	a0,s0
     444:	3bc1                	c.jal	214 <ae350_dcache_invalidate_partial_line>
     446:	b7d9                	c.j	40c <ae350_dma_invalidate_range2+0x48>
     448:	0001                	c.nop
     44a:	0001                	c.nop

0000044c <_init>:
     44c:	8082                	c.jr	ra
     44e:	0001                	c.nop

00000450 <_fini>:
     450:	8082                	c.jr	ra
     452:	0001                	c.nop

00000454 <default_irq_handler>:
     454:	1141                	c.addi	sp,-16
     456:	c606                	c.swsp	ra,12(sp)
     458:	c94f950b          	addigp	a0,-2924 # 2a0c <__riscv_restore_0+0xc>
     45c:	2d7010ef          	jal	ra,1f32 <iprintf>
     460:	40b2                	c.lwsp	ra,12(sp)
     462:	0141                	c.addi	sp,16
     464:	8082                	c.jr	ra
     466:	0001                	c.nop

00000468 <mext_interrupt>:
     468:	1141                	c.addi	sp,-16
     46a:	c606                	c.swsp	ra,12(sp)
     46c:	c422                	c.swsp	s0,8(sp)
     46e:	842a                	c.mv	s0,a0
     470:	300467f3          	csrrsi	a5,mstatus,8
     474:	00251713          	slli	a4,a0,0x2
     478:	cb0f978b          	addigp	a5,-2896 # 2a28 <irq_handler>
     47c:	97ba                	c.add	a5,a4
     47e:	439c                	c.lw	a5,0(a5)
     480:	9782                	c.jalr	a5
     482:	f14027f3          	csrr	a5,mhartid
     486:	07b2                	c.slli	a5,0xc
     488:	e4200737          	lui	a4,0xe4200
     48c:	0711                	c.addi	a4,4
     48e:	97ba                	c.add	a5,a4
     490:	c380                	c.sw	s0,0(a5)
     492:	300477f3          	csrrci	a5,mstatus,8
     496:	40b2                	c.lwsp	ra,12(sp)
     498:	4422                	c.lwsp	s0,8(sp)
     49a:	0141                	c.addi	sp,16
     49c:	8082                	c.jr	ra
     49e:	0001                	c.nop

000004a0 <reset_handler>:
     4a0:	1141                	c.addi	sp,-16
     4a2:	c606                	c.swsp	ra,12(sp)
     4a4:	36f1                	c.jal	70 <c_startup>
     4a6:	36dd                	c.jal	8c <system_init>
     4a8:	1b7010ef          	jal	ra,1e5e <__libc_init_array>
     4ac:	0f9010ef          	jal	ra,1da4 <main>
     4b0:	40b2                	c.lwsp	ra,12(sp)
     4b2:	0141                	c.addi	sp,16
     4b4:	8082                	c.jr	ra
     4b6:	0001                	c.nop

000004b8 <mtime_handler>:
     4b8:	08000793          	li	a5,128
     4bc:	3047b7f3          	csrrc	a5,mie,a5
     4c0:	8082                	c.jr	ra
     4c2:	0001                	c.nop

000004c4 <mswi_handler>:
     4c4:	304477f3          	csrrci	a5,mie,8
     4c8:	8082                	c.jr	ra
     4ca:	0001                	c.nop

000004cc <syscall_handler>:
     4cc:	1141                	c.addi	sp,-16
     4ce:	c606                	c.swsp	ra,12(sp)
     4d0:	87ba                	c.mv	a5,a4
     4d2:	8736                	c.mv	a4,a3
     4d4:	86b2                	c.mv	a3,a2
     4d6:	862e                	c.mv	a2,a1
     4d8:	85aa                	c.mv	a1,a0
     4da:	d30f950b          	addigp	a0,-2768 # 2aa8 <irq_handler+0x80>
     4de:	255010ef          	jal	ra,1f32 <iprintf>
     4e2:	40b2                	c.lwsp	ra,12(sp)
     4e4:	0141                	c.addi	sp,16
     4e6:	8082                	c.jr	ra
     4e8:	0001                	c.nop
     4ea:	0001                	c.nop

000004ec <except_handler>:
     4ec:	1141                	c.addi	sp,-16
     4ee:	c606                	c.swsp	ra,12(sp)
     4f0:	c422                	c.swsp	s0,8(sp)
     4f2:	842e                	c.mv	s0,a1
     4f4:	862e                	c.mv	a2,a1
     4f6:	85aa                	c.mv	a1,a0
     4f8:	d68f950b          	addigp	a0,-2712 # 2ae0 <irq_handler+0xb8>
     4fc:	237010ef          	jal	ra,1f32 <iprintf>
     500:	8522                	c.mv	a0,s0
     502:	40b2                	c.lwsp	ra,12(sp)
     504:	4422                	c.lwsp	s0,8(sp)
     506:	0141                	c.addi	sp,16
     508:	8082                	c.jr	ra
     50a:	0001                	c.nop

0000050c <trap_entry>:
     50c:	7111                	c.addi16sp	sp,-256
     50e:	df86                	c.swsp	ra,252(sp)
     510:	dd96                	c.swsp	t0,248(sp)
     512:	db9a                	c.swsp	t1,244(sp)
     514:	d99e                	c.swsp	t2,240(sp)
     516:	d7a2                	c.swsp	s0,236(sp)
     518:	d5a6                	c.swsp	s1,232(sp)
     51a:	d3aa                	c.swsp	a0,228(sp)
     51c:	d1ae                	c.swsp	a1,224(sp)
     51e:	cfb2                	c.swsp	a2,220(sp)
     520:	cdb6                	c.swsp	a3,216(sp)
     522:	cbba                	c.swsp	a4,212(sp)
     524:	c9be                	c.swsp	a5,208(sp)
     526:	c7c2                	c.swsp	a6,204(sp)
     528:	c5c6                	c.swsp	a7,200(sp)
     52a:	c3ca                	c.swsp	s2,196(sp)
     52c:	c1ce                	c.swsp	s3,192(sp)
     52e:	df52                	c.swsp	s4,188(sp)
     530:	dd72                	c.swsp	t3,184(sp)
     532:	db76                	c.swsp	t4,180(sp)
     534:	d97a                	c.swsp	t5,176(sp)
     536:	d77e                	c.swsp	t6,172(sp)
     538:	ad02                	c.fsdsp	ft0,152(sp)
     53a:	a906                	c.fsdsp	ft1,144(sp)
     53c:	a50a                	c.fsdsp	ft2,136(sp)
     53e:	a10e                	c.fsdsp	ft3,128(sp)
     540:	bc92                	c.fsdsp	ft4,120(sp)
     542:	b896                	c.fsdsp	ft5,112(sp)
     544:	b49a                	c.fsdsp	ft6,104(sp)
     546:	b09e                	c.fsdsp	ft7,96(sp)
     548:	acaa                	c.fsdsp	fa0,88(sp)
     54a:	a8ae                	c.fsdsp	fa1,80(sp)
     54c:	a4b2                	c.fsdsp	fa2,72(sp)
     54e:	a0b6                	c.fsdsp	fa3,64(sp)
     550:	bc3a                	c.fsdsp	fa4,56(sp)
     552:	b83e                	c.fsdsp	fa5,48(sp)
     554:	b442                	c.fsdsp	fa6,40(sp)
     556:	b046                	c.fsdsp	fa7,32(sp)
     558:	ac72                	c.fsdsp	ft8,24(sp)
     55a:	a876                	c.fsdsp	ft9,16(sp)
     55c:	a47a                	c.fsdsp	ft10,8(sp)
     55e:	a07e                	c.fsdsp	ft11,0(sp)
     560:	342027f3          	csrr	a5,mcause
     564:	00078713          	mv	a4,a5
     568:	34102473          	csrr	s0,mepc
     56c:	30002a73          	csrr	s4,mstatus
     570:	7c4029f3          	csrr	s3,mxstatus
     574:	80102973          	rdov	s2
     578:	003024f3          	frsr	s1
     57c:	0807ca63          	bltz	a5,610 <trap_entry+0x104>
     580:	0a074a63          	bltz	a4,634 <trap_entry+0x128>
     584:	0c074263          	bltz	a4,648 <trap_entry+0x13c>
     588:	00074a63          	bltz	a4,59c <trap_entry+0x90>
     58c:	80000737          	lui	a4,0x80000
     590:	fff74713          	not	a4,a4
     594:	8f7d                	c.and	a4,a5
     596:	46ad                	c.li	a3,11
     598:	0cd70e63          	beq	a4,a3,674 <trap_entry+0x168>
     59c:	85a2                	c.mv	a1,s0
     59e:	853e                	c.mv	a0,a5
     5a0:	37b1                	c.jal	4ec <except_handler>
     5a2:	842a                	c.mv	s0,a0
     5a4:	300a1073          	csrw	mstatus,s4
     5a8:	34141073          	csrw	mepc,s0
     5ac:	7c499073          	csrw	mxstatus,s3
     5b0:	80191073          	csrw	ucode,s2
     5b4:	003494f3          	fssr	s1,s1
     5b8:	50fe                	c.lwsp	ra,252(sp)
     5ba:	52ee                	c.lwsp	t0,248(sp)
     5bc:	535e                	c.lwsp	t1,244(sp)
     5be:	53ce                	c.lwsp	t2,240(sp)
     5c0:	543e                	c.lwsp	s0,236(sp)
     5c2:	54ae                	c.lwsp	s1,232(sp)
     5c4:	551e                	c.lwsp	a0,228(sp)
     5c6:	558e                	c.lwsp	a1,224(sp)
     5c8:	467e                	c.lwsp	a2,220(sp)
     5ca:	46ee                	c.lwsp	a3,216(sp)
     5cc:	475e                	c.lwsp	a4,212(sp)
     5ce:	47ce                	c.lwsp	a5,208(sp)
     5d0:	483e                	c.lwsp	a6,204(sp)
     5d2:	48ae                	c.lwsp	a7,200(sp)
     5d4:	491e                	c.lwsp	s2,196(sp)
     5d6:	498e                	c.lwsp	s3,192(sp)
     5d8:	5a7a                	c.lwsp	s4,188(sp)
     5da:	5e6a                	c.lwsp	t3,184(sp)
     5dc:	5eda                	c.lwsp	t4,180(sp)
     5de:	5f4a                	c.lwsp	t5,176(sp)
     5e0:	5fba                	c.lwsp	t6,172(sp)
     5e2:	206a                	c.fldsp	ft0,152(sp)
     5e4:	20ca                	c.fldsp	ft1,144(sp)
     5e6:	212a                	c.fldsp	ft2,136(sp)
     5e8:	218a                	c.fldsp	ft3,128(sp)
     5ea:	3266                	c.fldsp	ft4,120(sp)
     5ec:	32c6                	c.fldsp	ft5,112(sp)
     5ee:	3326                	c.fldsp	ft6,104(sp)
     5f0:	3386                	c.fldsp	ft7,96(sp)
     5f2:	2566                	c.fldsp	fa0,88(sp)
     5f4:	25c6                	c.fldsp	fa1,80(sp)
     5f6:	2626                	c.fldsp	fa2,72(sp)
     5f8:	2686                	c.fldsp	fa3,64(sp)
     5fa:	3762                	c.fldsp	fa4,56(sp)
     5fc:	37c2                	c.fldsp	fa5,48(sp)
     5fe:	3822                	c.fldsp	fa6,40(sp)
     600:	3882                	c.fldsp	fa7,32(sp)
     602:	2e62                	c.fldsp	ft8,24(sp)
     604:	2ec2                	c.fldsp	ft9,16(sp)
     606:	2f22                	c.fldsp	ft10,8(sp)
     608:	2f82                	c.fldsp	ft11,0(sp)
     60a:	6111                	c.addi16sp	sp,256
     60c:	30200073          	mret
     610:	800006b7          	lui	a3,0x80000
     614:	fff6c693          	not	a3,a3
     618:	8efd                	c.and	a3,a5
     61a:	462d                	c.li	a2,11
     61c:	f6c692e3          	bne	a3,a2,580 <trap_entry+0x74>
     620:	f14027f3          	csrr	a5,mhartid
     624:	07b2                	c.slli	a5,0xc
     626:	e4200737          	lui	a4,0xe4200
     62a:	0711                	c.addi	a4,4
     62c:	97ba                	c.add	a5,a4
     62e:	4388                	c.lw	a0,0(a5)
     630:	3d25                	c.jal	468 <mext_interrupt>
     632:	bf8d                	c.j	5a4 <trap_entry+0x98>
     634:	800006b7          	lui	a3,0x80000
     638:	fff6c693          	not	a3,a3
     63c:	8efd                	c.and	a3,a5
     63e:	461d                	c.li	a2,7
     640:	f4c692e3          	bne	a3,a2,584 <trap_entry+0x78>
     644:	3d95                	c.jal	4b8 <mtime_handler>
     646:	bfb9                	c.j	5a4 <trap_entry+0x98>
     648:	800006b7          	lui	a3,0x80000
     64c:	fff6c693          	not	a3,a3
     650:	8efd                	c.and	a3,a5
     652:	460d                	c.li	a2,3
     654:	f2c69ae3          	bne	a3,a2,588 <trap_entry+0x7c>
     658:	35b5                	c.jal	4c4 <mswi_handler>
     65a:	f1402773          	csrr	a4,mhartid
     65e:	0705                	c.addi	a4,1
     660:	f14027f3          	csrr	a5,mhartid
     664:	07b2                	c.slli	a5,0xc
     666:	e66006b7          	lui	a3,0xe6600
     66a:	0691                	c.addi	a3,4
     66c:	97b6                	c.add	a5,a3
     66e:	c398                	c.sw	a4,0(a5)
     670:	f35ff06f          	j	5a4 <trap_entry+0x98>
     674:	8736                	c.mv	a4,a3
     676:	86b2                	c.mv	a3,a2
     678:	862e                	c.mv	a2,a1
     67a:	85aa                	c.mv	a1,a0
     67c:	8546                	c.mv	a0,a7
     67e:	35b9                	c.jal	4cc <syscall_handler>
     680:	0411                	c.addi	s0,4
     682:	b70d                	c.j	5a4 <trap_entry+0x98>
     684:	0001                	c.nop
     686:	0001                	c.nop

00000688 <dma_channel_configure>:
     688:	1101                	c.addi	sp,-32
     68a:	ce06                	c.swsp	ra,28(sp)
     68c:	cc22                	c.swsp	s0,24(sp)
     68e:	ca26                	c.swsp	s1,20(sp)
     690:	c84a                	c.swsp	s2,16(sp)
     692:	c64e                	c.swsp	s3,12(sp)
     694:	c452                	c.swsp	s4,8(sp)
     696:	c256                	c.swsp	s5,4(sp)
     698:	8abe                	c.mv	s5,a5
     69a:	479d                	c.li	a5,7
     69c:	18a7ee63          	bltu	a5,a0,838 <dma_channel_configure+0x1b0>
     6a0:	84aa                	c.mv	s1,a0
     6a2:	8a2e                	c.mv	s4,a1
     6a4:	89b2                	c.mv	s3,a2
     6a6:	8936                	c.mv	s2,a3
     6a8:	843a                	c.mv	s0,a4
     6aa:	300026f3          	csrr	a3,mstatus
     6ae:	8aa1                	c.andi	a3,8
     6b0:	00068463          	beqz	a3,6b8 <dma_channel_configure+0x30>
     6b4:	300477f3          	csrrci	a5,mstatus,8
     6b8:	4705                	c.li	a4,1
     6ba:	00971733          	sll	a4,a4,s1
     6be:	833fa7ab          	lwgp	a5,-2000 # 2da8 <channel_active>
     6c2:	00f77633          	and	a2,a4,a5
     6c6:	10061363          	bnez	a2,7cc <dma_channel_configure+0x144>
     6ca:	8f5d                	c.or	a4,a5
     6cc:	82efc9ab          	swgp	a4,-2000 # 2da8 <channel_active>
     6d0:	10068463          	beqz	a3,7d8 <dma_channel_configure+0x150>
     6d4:	300467f3          	csrrsi	a5,mstatus,8
     6d8:	00000513          	li	a0,0
     6dc:	ed71                	c.bnez	a0,7b8 <dma_channel_configure+0x130>
     6de:	67c1                	c.lui	a5,0x10
     6e0:	8fe1                	c.and	a5,s0
     6e2:	c399                	c.beqz	a5,6e8 <dma_channel_configure+0x60>
     6e4:	0e0a5c63          	bgez	s4,7dc <dma_channel_configure+0x154>
     6e8:	000207b7          	lui	a5,0x20
     6ec:	8fe1                	c.and	a5,s0
     6ee:	c399                	c.beqz	a5,6f4 <dma_channel_configure+0x6c>
     6f0:	0e09da63          	bgez	s3,7e4 <dma_channel_configure+0x15c>
     6f4:	851f968b          	addigp	a3,-1968 # 2dc8 <channel_info>
     6f8:	47d1                	c.li	a5,20
     6fa:	c4f496ff          	maddr32	a3,s1,a5
     6fe:	0156a823          	sw	s5,16(a3) # e6600010 <boot_loader+0x66600010>
     702:	00549793          	slli	a5,s1,0x5
     706:	f0c00637          	lui	a2,0xf0c00
     70a:	04060713          	addi	a4,a2,64 # f0c00040 <boot_loader+0x70c00040>
     70e:	97ba                	c.add	a5,a4
     710:	0007a023          	sw	zero,0(a5) # 20000 <__global_pointer$+0x1ca88>
     714:	01048593          	addi	a1,s1,16
     718:	4705                	c.li	a4,1
     71a:	00b715b3          	sll	a1,a4,a1
     71e:	da0c                	c.sw	a1,48(a2)
     720:	00848593          	addi	a1,s1,8
     724:	00b715b3          	sll	a1,a4,a1
     728:	da0c                	c.sw	a1,48(a2)
     72a:	00971733          	sll	a4,a4,s1
     72e:	da18                	c.sw	a4,48(a2)
     730:	0007ac23          	sw	zero,24(a5)
     734:	0007ae23          	sw	zero,28(a5)
     738:	0126a423          	sw	s2,8(a3)
     73c:	00400737          	lui	a4,0x400
     740:	00e96663          	bltu	s2,a4,74c <dma_channel_configure+0xc4>
     744:	00400937          	lui	s2,0x400
     748:	fff90913          	addi	s2,s2,-1 # 3fffff <__global_pointer$+0x3fca87>
     74c:	0127a223          	sw	s2,4(a5)
     750:	0147a423          	sw	s4,8(a5)
     754:	0137a823          	sw	s3,16(a5)
     758:	0007a623          	sw	zero,12(a5)
     75c:	0007aa23          	sw	zero,20(a5)
     760:	6721                	c.lui	a4,0x8
     762:	8f61                	c.and	a4,s0
     764:	ef01                	c.bnez	a4,77c <dma_channel_configure+0xf4>
     766:	6711                	c.lui	a4,0x4
     768:	8f61                	c.and	a4,s0
     76a:	c349                	c.beqz	a4,7ec <dma_channel_configure+0x164>
     76c:	01545713          	srli	a4,s0,0x15
     770:	00777713          	andi	a4,a4,7
     774:	00e91733          	sll	a4,s2,a4
     778:	40ea0a33          	sub	s4,s4,a4
     77c:	6709                	c.lui	a4,0x2
     77e:	8f61                	c.and	a4,s0
     780:	ef01                	c.bnez	a4,798 <dma_channel_configure+0x110>
     782:	6705                	c.lui	a4,0x1
     784:	8f61                	c.and	a4,s0
     786:	cb3d                	c.beqz	a4,7fc <dma_channel_configure+0x174>
     788:	01245713          	srli	a4,s0,0x12
     78c:	00777713          	andi	a4,a4,7
     790:	00e91733          	sll	a4,s2,a4
     794:	40e989b3          	sub	s3,s3,a4
     798:	851f970b          	addigp	a4,-1968 # 2dc8 <channel_info>
     79c:	46d1                	c.li	a3,20
     79e:	c4d4977f          	maddr32	a4,s1,a3
     7a2:	01472023          	sw	s4,0(a4) # 1000 <gpio_initialize+0x38>
     7a6:	01372223          	sw	s3,4(a4)
     7aa:	01272623          	sw	s2,12(a4)
     7ae:	c380                	c.sw	s0,0(a5)
     7b0:	8805                	c.andi	s0,1
     7b2:	cc29                	c.beqz	s0,80c <dma_channel_configure+0x184>
     7b4:	00000513          	li	a0,0
     7b8:	40f2                	c.lwsp	ra,28(sp)
     7ba:	4462                	c.lwsp	s0,24(sp)
     7bc:	44d2                	c.lwsp	s1,20(sp)
     7be:	4942                	c.lwsp	s2,16(sp)
     7c0:	49b2                	c.lwsp	s3,12(sp)
     7c2:	4a22                	c.lwsp	s4,8(sp)
     7c4:	4a92                	c.lwsp	s5,4(sp)
     7c6:	6105                	c.addi16sp	sp,32
     7c8:	00008067          	ret
     7cc:	00068463          	beqz	a3,7d4 <dma_channel_configure+0x14c>
     7d0:	300467f3          	csrrsi	a5,mstatus,8
     7d4:	557d                	c.li	a0,-1
     7d6:	b719                	c.j	6dc <dma_channel_configure+0x54>
     7d8:	4501                	c.li	a0,0
     7da:	b709                	c.j	6dc <dma_channel_configure+0x54>
     7dc:	85ca                	c.mv	a1,s2
     7de:	8552                	c.mv	a0,s4
     7e0:	3e81                	c.jal	330 <ae350_dma_writeback_range>
     7e2:	b719                	c.j	6e8 <dma_channel_configure+0x60>
     7e4:	85ca                	c.mv	a1,s2
     7e6:	854e                	c.mv	a0,s3
     7e8:	3e91                	c.jal	33c <ae350_dma_invalidate_range>
     7ea:	b729                	c.j	6f4 <dma_channel_configure+0x6c>
     7ec:	01545713          	srli	a4,s0,0x15
     7f0:	8b1d                	c.andi	a4,7
     7f2:	00e91733          	sll	a4,s2,a4
     7f6:	9a3a                	c.add	s4,a4
     7f8:	f85ff06f          	j	77c <dma_channel_configure+0xf4>
     7fc:	01245713          	srli	a4,s0,0x12
     800:	8b1d                	c.andi	a4,7
     802:	00e91733          	sll	a4,s2,a4
     806:	99ba                	c.add	s3,a4
     808:	f91ff06f          	j	798 <dma_channel_configure+0x110>
     80c:	300027f3          	csrr	a5,mstatus
     810:	8ba1                	c.andi	a5,8
     812:	c399                	c.beqz	a5,818 <dma_channel_configure+0x190>
     814:	30047773          	csrrci	a4,mstatus,8
     818:	4505                	c.li	a0,1
     81a:	009514b3          	sll	s1,a0,s1
     81e:	fff4c493          	not	s1,s1
     822:	831f968b          	addigp	a3,-2000 # 2da8 <channel_active>
     826:	4298                	c.lw	a4,0(a3)
     828:	8cf9                	c.and	s1,a4
     82a:	c284                	c.sw	s1,0(a3)
     82c:	00078463          	beqz	a5,834 <dma_channel_configure+0x1ac>
     830:	300467f3          	csrrsi	a5,mstatus,8
     834:	4501                	c.li	a0,0
     836:	b749                	c.j	7b8 <dma_channel_configure+0x130>
     838:	557d                	c.li	a0,-1
     83a:	bfbd                	c.j	7b8 <dma_channel_configure+0x130>
     83c:	0001                	c.nop
     83e:	0001                	c.nop

00000840 <dma_channel_disable>:
     840:	479d                	c.li	a5,7
     842:	0aa7e163          	bltu	a5,a0,8e4 <dma_channel_disable+0xa4>
     846:	1141                	c.addi	sp,-16
     848:	c606                	c.swsp	ra,12(sp)
     84a:	c422                	c.swsp	s0,8(sp)
     84c:	c226                	c.swsp	s1,4(sp)
     84e:	84aa                	c.mv	s1,a0
     850:	851f978b          	addigp	a5,-1968 # 2dc8 <channel_info>
     854:	4751                	c.li	a4,20
     856:	c4e517ff          	maddr32	a5,a0,a4
     85a:	43c8                	c.lw	a0,4(a5)
     85c:	47d4                	c.lw	a3,12(a5)
     85e:	478c                	c.lw	a1,8(a5)
     860:	00549413          	slli	s0,s1,0x5
     864:	f0c007b7          	lui	a5,0xf0c00
     868:	04078793          	addi	a5,a5,64 # f0c00040 <boot_loader+0x70c00040>
     86c:	943e                	c.add	s0,a5
     86e:	401c                	c.lw	a5,0(s0)
     870:	6709                	c.lui	a4,0x2
     872:	8f7d                	c.and	a4,a5
     874:	eb11                	c.bnez	a4,888 <dma_channel_disable+0x48>
     876:	6705                	c.lui	a4,0x1
     878:	8f7d                	c.and	a4,a5
     87a:	cb39                	c.beqz	a4,8d0 <dma_channel_disable+0x90>
     87c:	0127d713          	srli	a4,a5,0x12
     880:	8b1d                	c.andi	a4,7
     882:	00e696b3          	sll	a3,a3,a4
     886:	9536                	c.add	a0,a3
     888:	00020737          	lui	a4,0x20
     88c:	8ff9                	c.and	a5,a4
     88e:	c399                	c.beqz	a5,894 <dma_channel_disable+0x54>
     890:	04055863          	bgez	a0,8e0 <dma_channel_disable+0xa0>
     894:	300027f3          	csrr	a5,mstatus
     898:	8ba1                	c.andi	a5,8
     89a:	c399                	c.beqz	a5,8a0 <dma_channel_disable+0x60>
     89c:	30047773          	csrrci	a4,mstatus,8
     8a0:	4505                	c.li	a0,1
     8a2:	009514b3          	sll	s1,a0,s1
     8a6:	fff4c493          	not	s1,s1
     8aa:	831f968b          	addigp	a3,-2000 # 2da8 <channel_active>
     8ae:	4298                	c.lw	a4,0(a3)
     8b0:	8cf9                	c.and	s1,a4
     8b2:	c284                	c.sw	s1,0(a3)
     8b4:	00078463          	beqz	a5,8bc <dma_channel_disable+0x7c>
     8b8:	300467f3          	csrrsi	a5,mstatus,8
     8bc:	401c                	c.lw	a5,0(s0)
     8be:	9bf9                	c.andi	a5,-2
     8c0:	c01c                	c.sw	a5,0(s0)
     8c2:	4501                	c.li	a0,0
     8c4:	40b2                	c.lwsp	ra,12(sp)
     8c6:	4422                	c.lwsp	s0,8(sp)
     8c8:	4492                	c.lwsp	s1,4(sp)
     8ca:	0141                	c.addi	sp,16
     8cc:	00008067          	ret
     8d0:	0127d713          	srli	a4,a5,0x12
     8d4:	8b1d                	c.andi	a4,7
     8d6:	00e696b3          	sll	a3,a3,a4
     8da:	8d15                	c.sub	a0,a3
     8dc:	fadff06f          	j	888 <dma_channel_disable+0x48>
     8e0:	34d5                	c.jal	3c4 <ae350_dma_invalidate_range2>
     8e2:	bf4d                	c.j	894 <dma_channel_disable+0x54>
     8e4:	557d                	c.li	a0,-1
     8e6:	8082                	c.jr	ra

000008e8 <dma_channel_abort>:
     8e8:	479d                	c.li	a5,7
     8ea:	0ca7ed63          	bltu	a5,a0,9c4 <dma_channel_abort+0xdc>
     8ee:	1141                	c.addi	sp,-16
     8f0:	c606                	c.swsp	ra,12(sp)
     8f2:	c422                	c.swsp	s0,8(sp)
     8f4:	c226                	c.swsp	s1,4(sp)
     8f6:	842a                	c.mv	s0,a0
     8f8:	851f978b          	addigp	a5,-1968 # 2dc8 <channel_info>
     8fc:	4751                	c.li	a4,20
     8fe:	c4e517ff          	maddr32	a5,a0,a4
     902:	43c8                	c.lw	a0,4(a5)
     904:	47d4                	c.lw	a3,12(a5)
     906:	478c                	c.lw	a1,8(a5)
     908:	00541493          	slli	s1,s0,0x5
     90c:	f0c007b7          	lui	a5,0xf0c00
     910:	04078793          	addi	a5,a5,64 # f0c00040 <boot_loader+0x70c00040>
     914:	94be                	c.add	s1,a5
     916:	409c                	c.lw	a5,0(s1)
     918:	6709                	c.lui	a4,0x2
     91a:	8f7d                	c.and	a4,a5
     91c:	eb11                	c.bnez	a4,930 <dma_channel_abort+0x48>
     91e:	6705                	c.lui	a4,0x1
     920:	8f7d                	c.and	a4,a5
     922:	c759                	c.beqz	a4,9b0 <dma_channel_abort+0xc8>
     924:	0127d713          	srli	a4,a5,0x12
     928:	8b1d                	c.andi	a4,7
     92a:	00e696b3          	sll	a3,a3,a4
     92e:	9536                	c.add	a0,a3
     930:	00020737          	lui	a4,0x20
     934:	8ff9                	c.and	a5,a4
     936:	c399                	c.beqz	a5,93c <dma_channel_abort+0x54>
     938:	08055463          	bgez	a0,9c0 <dma_channel_abort+0xd8>
     93c:	30002773          	csrr	a4,mstatus
     940:	8b21                	c.andi	a4,8
     942:	c319                	c.beqz	a4,948 <dma_channel_abort+0x60>
     944:	300477f3          	csrrci	a5,mstatus,8
     948:	4785                	c.li	a5,1
     94a:	008797b3          	sll	a5,a5,s0
     94e:	fff7c793          	not	a5,a5
     952:	831f960b          	addigp	a2,-2000 # 2da8 <channel_active>
     956:	4214                	c.lw	a3,0(a2)
     958:	8ff5                	c.and	a5,a3
     95a:	c21c                	c.sw	a5,0(a2)
     95c:	00070463          	beqz	a4,964 <dma_channel_abort+0x7c>
     960:	300467f3          	csrrsi	a5,mstatus,8
     964:	4705                	c.li	a4,1
     966:	00871633          	sll	a2,a4,s0
     96a:	f0c006b7          	lui	a3,0xf0c00
     96e:	d2d0                	c.sw	a2,36(a3)
     970:	0004a023          	sw	zero,0(s1)
     974:	851f978b          	addigp	a5,-1968 # 2dc8 <channel_info>
     978:	45d1                	c.li	a1,20
     97a:	c4b417ff          	maddr32	a5,s0,a1
     97e:	0007a023          	sw	zero,0(a5)
     982:	0007a223          	sw	zero,4(a5)
     986:	0007a423          	sw	zero,8(a5)
     98a:	0007a623          	sw	zero,12(a5)
     98e:	01040793          	addi	a5,s0,16
     992:	00f717b3          	sll	a5,a4,a5
     996:	da9c                	c.sw	a5,48(a3)
     998:	0421                	c.addi	s0,8
     99a:	00871433          	sll	s0,a4,s0
     99e:	da80                	c.sw	s0,48(a3)
     9a0:	da90                	c.sw	a2,48(a3)
     9a2:	4501                	c.li	a0,0
     9a4:	40b2                	c.lwsp	ra,12(sp)
     9a6:	4422                	c.lwsp	s0,8(sp)
     9a8:	4492                	c.lwsp	s1,4(sp)
     9aa:	0141                	c.addi	sp,16
     9ac:	00008067          	ret
     9b0:	0127d713          	srli	a4,a5,0x12
     9b4:	8b1d                	c.andi	a4,7
     9b6:	00e696b3          	sll	a3,a3,a4
     9ba:	8d15                	c.sub	a0,a3
     9bc:	f75ff06f          	j	930 <dma_channel_abort+0x48>
     9c0:	3411                	c.jal	3c4 <ae350_dma_invalidate_range2>
     9c2:	bfad                	c.j	93c <dma_channel_abort+0x54>
     9c4:	557d                	c.li	a0,-1
     9c6:	8082                	c.jr	ra

000009c8 <dma_channel_get_count>:
     9c8:	479d                	c.li	a5,7
     9ca:	02a7e763          	bltu	a5,a0,9f8 <dma_channel_get_count+0x30>
     9ce:	851f978b          	addigp	a5,-1968 # 2dc8 <channel_info>
     9d2:	4751                	c.li	a4,20
     9d4:	c4e517ff          	maddr32	a5,a0,a4
     9d8:	47dc                	c.lw	a5,12(a5)
     9da:	0516                	c.slli	a0,0x5
     9dc:	f0c00737          	lui	a4,0xf0c00
     9e0:	04070713          	addi	a4,a4,64 # f0c00040 <boot_loader+0x70c00040>
     9e4:	953a                	c.add	a0,a4
     9e6:	4148                	c.lw	a0,4(a0)
     9e8:	00400737          	lui	a4,0x400
     9ec:	177d                	c.addi	a4,-1
     9ee:	8d79                	c.and	a0,a4
     9f0:	40a78533          	sub	a0,a5,a0
     9f4:	00008067          	ret
     9f8:	4501                	c.li	a0,0
     9fa:	8082                	c.jr	ra
     9fc:	0001                	c.nop
     9fe:	0001                	c.nop

00000a00 <dma_irq_handler>:
     a00:	1141                	c.addi	sp,-16
     a02:	c606                	c.swsp	ra,12(sp)
     a04:	c422                	c.swsp	s0,8(sp)
     a06:	4401                	c.li	s0,0
     a08:	0480006f          	j	a50 <dma_irq_handler+0x50>
     a0c:	01575693          	srli	a3,a4,0x15
     a10:	8a9d                	c.andi	a3,7
     a12:	00d596b3          	sll	a3,a1,a3
     a16:	851f960b          	addigp	a2,-1968 # 2dc8 <channel_info>
     a1a:	4551                	c.li	a0,20
     a1c:	c4a4167f          	maddr32	a2,s0,a0
     a20:	4208                	c.lw	a0,0(a2)
     a22:	96aa                	c.add	a3,a0
     a24:	c214                	c.sw	a3,0(a2)
     a26:	a8c9                	c.j	af8 <dma_irq_handler+0xf8>
     a28:	8349                	c.srli	a4,0x12
     a2a:	8b1d                	c.andi	a4,7
     a2c:	00e59733          	sll	a4,a1,a4
     a30:	851f968b          	addigp	a3,-1968 # 2dc8 <channel_info>
     a34:	4651                	c.li	a2,20
     a36:	c4c416ff          	maddr32	a3,s0,a2
     a3a:	42d0                	c.lw	a2,4(a3)
     a3c:	9732                	c.add	a4,a2
     a3e:	c2d8                	c.sw	a4,4(a3)
     a40:	c3cc                	c.sw	a1,4(a5)
     a42:	4398                	c.lw	a4,0(a5)
     a44:	00176713          	ori	a4,a4,1
     a48:	00e7a023          	sw	a4,0(a5)
     a4c:	00140413          	addi	s0,s0,1
     a50:	479d                	c.li	a5,7
     a52:	2287ef63          	bltu	a5,s0,c90 <dma_irq_handler+0x290>
     a56:	f0c007b7          	lui	a5,0xf0c00
     a5a:	5b9c                	c.lw	a5,48(a5)
     a5c:	0087d7b3          	srl	a5,a5,s0
     a60:	8b85                	c.andi	a5,1
     a62:	f7ed                	c.bnez	a5,a4c <dma_irq_handler+0x4c>
     a64:	00541793          	slli	a5,s0,0x5
     a68:	f0c00737          	lui	a4,0xf0c00
     a6c:	04070693          	addi	a3,a4,64 # f0c00040 <boot_loader+0x70c00040>
     a70:	97b6                	c.add	a5,a3
     a72:	5b18                	c.lw	a4,48(a4)
     a74:	01040693          	addi	a3,s0,16
     a78:	00d75733          	srl	a4,a4,a3
     a7c:	8b05                	c.andi	a4,1
     a7e:	14070363          	beqz	a4,bc4 <dma_irq_handler+0x1c4>
     a82:	4705                	c.li	a4,1
     a84:	00d716b3          	sll	a3,a4,a3
     a88:	f0c00737          	lui	a4,0xf0c00
     a8c:	db14                	c.sw	a3,48(a4)
     a8e:	851f970b          	addigp	a4,-1968 # 2dc8 <channel_info>
     a92:	46d1                	c.li	a3,20
     a94:	c4d4177f          	maddr32	a4,s0,a3
     a98:	4754                	c.lw	a3,12(a4)
     a9a:	470c                	c.lw	a1,8(a4)
     a9c:	08b68c63          	beq	a3,a1,b34 <dma_irq_handler+0x134>
     aa0:	8d95                	c.sub	a1,a3
     aa2:	00400737          	lui	a4,0x400
     aa6:	00e5e563          	bltu	a1,a4,ab0 <dma_irq_handler+0xb0>
     aaa:	004005b7          	lui	a1,0x400
     aae:	15fd                	c.addi	a1,-1
     ab0:	851f970b          	addigp	a4,-1968 # 2dc8 <channel_info>
     ab4:	4651                	c.li	a2,20
     ab6:	c4c4177f          	maddr32	a4,s0,a2
     aba:	96ae                	c.add	a3,a1
     abc:	c754                	c.sw	a3,12(a4)
     abe:	4398                	c.lw	a4,0(a5)
     ac0:	66a1                	c.lui	a3,0x8
     ac2:	8ef9                	c.and	a3,a4
     ac4:	ea95                	c.bnez	a3,af8 <dma_irq_handler+0xf8>
     ac6:	851f968b          	addigp	a3,-1968 # 2dc8 <channel_info>
     aca:	c4c416ff          	maddr32	a3,s0,a2
     ace:	4294                	c.lw	a3,0(a3)
     ad0:	c794                	c.sw	a3,8(a5)
     ad2:	0007a623          	sw	zero,12(a5) # f0c0000c <boot_loader+0x70c0000c>
     ad6:	6691                	c.lui	a3,0x4
     ad8:	8ef9                	c.and	a3,a4
     ada:	da8d                	c.beqz	a3,a0c <dma_irq_handler+0xc>
     adc:	01575693          	srli	a3,a4,0x15
     ae0:	8a9d                	c.andi	a3,7
     ae2:	00d596b3          	sll	a3,a1,a3
     ae6:	851f960b          	addigp	a2,-1968 # 2dc8 <channel_info>
     aea:	4551                	c.li	a0,20
     aec:	c4a4167f          	maddr32	a2,s0,a0
     af0:	4208                	c.lw	a0,0(a2)
     af2:	40d506b3          	sub	a3,a0,a3
     af6:	c214                	c.sw	a3,0(a2)
     af8:	6689                	c.lui	a3,0x2
     afa:	8ef9                	c.and	a3,a4
     afc:	f2b1                	c.bnez	a3,a40 <dma_irq_handler+0x40>
     afe:	851f968b          	addigp	a3,-1968 # 2dc8 <channel_info>
     b02:	4651                	c.li	a2,20
     b04:	c4c416ff          	maddr32	a3,s0,a2
     b08:	42d4                	c.lw	a3,4(a3)
     b0a:	cb94                	c.sw	a3,16(a5)
     b0c:	0007aa23          	sw	zero,20(a5)
     b10:	6685                	c.lui	a3,0x1
     b12:	8ef9                	c.and	a3,a4
     b14:	f0068ae3          	beqz	a3,a28 <dma_irq_handler+0x28>
     b18:	8349                	c.srli	a4,0x12
     b1a:	8b1d                	c.andi	a4,7
     b1c:	00e59733          	sll	a4,a1,a4
     b20:	851f968b          	addigp	a3,-1968 # 2dc8 <channel_info>
     b24:	c4c416ff          	maddr32	a3,s0,a2
     b28:	42d0                	c.lw	a2,4(a3)
     b2a:	40e60733          	sub	a4,a2,a4
     b2e:	c2d8                	c.sw	a4,4(a3)
     b30:	f11ff06f          	j	a40 <dma_irq_handler+0x40>
     b34:	851f970b          	addigp	a4,-1968 # 2dc8 <channel_info>
     b38:	46d1                	c.li	a3,20
     b3a:	c4d4177f          	maddr32	a4,s0,a3
     b3e:	4348                	c.lw	a0,4(a4)
     b40:	439c                	c.lw	a5,0(a5)
     b42:	6709                	c.lui	a4,0x2
     b44:	8f7d                	c.and	a4,a5
     b46:	eb19                	c.bnez	a4,b5c <dma_irq_handler+0x15c>
     b48:	6705                	c.lui	a4,0x1
     b4a:	8f7d                	c.and	a4,a5
     b4c:	c325                	c.beqz	a4,bac <dma_irq_handler+0x1ac>
     b4e:	0127d713          	srli	a4,a5,0x12
     b52:	8b1d                	c.andi	a4,7
     b54:	00e59733          	sll	a4,a1,a4
     b58:	00e50533          	add	a0,a0,a4
     b5c:	00020737          	lui	a4,0x20
     b60:	8ff9                	c.and	a5,a4
     b62:	c399                	c.beqz	a5,b68 <dma_irq_handler+0x168>
     b64:	04055c63          	bgez	a0,bbc <dma_irq_handler+0x1bc>
     b68:	0ff47693          	andi	a3,s0,255
     b6c:	30002773          	csrr	a4,mstatus
     b70:	8b21                	c.andi	a4,8
     b72:	c319                	c.beqz	a4,b78 <dma_irq_handler+0x178>
     b74:	300477f3          	csrrci	a5,mstatus,8
     b78:	4785                	c.li	a5,1
     b7a:	00d797b3          	sll	a5,a5,a3
     b7e:	fff7c793          	not	a5,a5
     b82:	831f960b          	addigp	a2,-2000 # 2da8 <channel_active>
     b86:	4214                	c.lw	a3,0(a2)
     b88:	8ff5                	c.and	a5,a3
     b8a:	c21c                	c.sw	a5,0(a2)
     b8c:	00070463          	beqz	a4,b94 <dma_irq_handler+0x194>
     b90:	300467f3          	csrrsi	a5,mstatus,8
     b94:	851f978b          	addigp	a5,-1968 # 2dc8 <channel_info>
     b98:	4751                	c.li	a4,20
     b9a:	c4e417ff          	maddr32	a5,s0,a4
     b9e:	4b9c                	c.lw	a5,16(a5)
     ba0:	ea0786e3          	beqz	a5,a4c <dma_irq_handler+0x4c>
     ba4:	4505                	c.li	a0,1
     ba6:	9782                	c.jalr	a5
     ba8:	ea5ff06f          	j	a4c <dma_irq_handler+0x4c>
     bac:	0127d713          	srli	a4,a5,0x12
     bb0:	8b1d                	c.andi	a4,7
     bb2:	00e59733          	sll	a4,a1,a4
     bb6:	8d19                	c.sub	a0,a4
     bb8:	fa5ff06f          	j	b5c <dma_irq_handler+0x15c>
     bbc:	809ff0ef          	jal	ra,3c4 <ae350_dma_invalidate_range2>
     bc0:	fa9ff06f          	j	b68 <dma_irq_handler+0x168>
     bc4:	f0c00737          	lui	a4,0xf0c00
     bc8:	5b18                	c.lw	a4,48(a4)
     bca:	00875733          	srl	a4,a4,s0
     bce:	8b05                	c.andi	a4,1
     bd0:	e735                	c.bnez	a4,c3c <dma_irq_handler+0x23c>
     bd2:	f0c00737          	lui	a4,0xf0c00
     bd6:	5b18                	c.lw	a4,48(a4)
     bd8:	00840693          	addi	a3,s0,8
     bdc:	00d75733          	srl	a4,a4,a3
     be0:	8b05                	c.andi	a4,1
     be2:	e60705e3          	beqz	a4,a4c <dma_irq_handler+0x4c>
     be6:	0007a023          	sw	zero,0(a5)
     bea:	0ff47613          	andi	a2,s0,255
     bee:	30002773          	csrr	a4,mstatus
     bf2:	8b21                	c.andi	a4,8
     bf4:	00070463          	beqz	a4,bfc <dma_irq_handler+0x1fc>
     bf8:	300477f3          	csrrci	a5,mstatus,8
     bfc:	4785                	c.li	a5,1
     bfe:	00c797b3          	sll	a5,a5,a2
     c02:	fff7c793          	not	a5,a5
     c06:	831f958b          	addigp	a1,-2000 # 2da8 <channel_active>
     c0a:	4190                	c.lw	a2,0(a1)
     c0c:	8ff1                	c.and	a5,a2
     c0e:	c19c                	c.sw	a5,0(a1)
     c10:	00070463          	beqz	a4,c18 <dma_irq_handler+0x218>
     c14:	300467f3          	csrrsi	a5,mstatus,8
     c18:	4785                	c.li	a5,1
     c1a:	00d796b3          	sll	a3,a5,a3
     c1e:	f0c007b7          	lui	a5,0xf0c00
     c22:	db94                	c.sw	a3,48(a5)
     c24:	851f978b          	addigp	a5,-1968 # 2dc8 <channel_info>
     c28:	4751                	c.li	a4,20
     c2a:	c4e417ff          	maddr32	a5,s0,a4
     c2e:	4b9c                	c.lw	a5,16(a5)
     c30:	e0078ee3          	beqz	a5,a4c <dma_irq_handler+0x4c>
     c34:	450d                	c.li	a0,3
     c36:	9782                	c.jalr	a5
     c38:	e15ff06f          	j	a4c <dma_irq_handler+0x4c>
     c3c:	0007a023          	sw	zero,0(a5) # f0c00000 <boot_loader+0x70c00000>
     c40:	0ff47693          	andi	a3,s0,255
     c44:	30002773          	csrr	a4,mstatus
     c48:	8b21                	c.andi	a4,8
     c4a:	c319                	c.beqz	a4,c50 <dma_irq_handler+0x250>
     c4c:	300477f3          	csrrci	a5,mstatus,8
     c50:	4785                	c.li	a5,1
     c52:	00d797b3          	sll	a5,a5,a3
     c56:	fff7c793          	not	a5,a5
     c5a:	831f960b          	addigp	a2,-2000 # 2da8 <channel_active>
     c5e:	4214                	c.lw	a3,0(a2)
     c60:	8ff5                	c.and	a5,a3
     c62:	c21c                	c.sw	a5,0(a2)
     c64:	00070463          	beqz	a4,c6c <dma_irq_handler+0x26c>
     c68:	300467f3          	csrrsi	a5,mstatus,8
     c6c:	4785                	c.li	a5,1
     c6e:	008797b3          	sll	a5,a5,s0
     c72:	f0c00737          	lui	a4,0xf0c00
     c76:	db1c                	c.sw	a5,48(a4)
     c78:	851f978b          	addigp	a5,-1968 # 2dc8 <channel_info>
     c7c:	4751                	c.li	a4,20
     c7e:	c4e417ff          	maddr32	a5,s0,a4
     c82:	4b9c                	c.lw	a5,16(a5)
     c84:	dc0784e3          	beqz	a5,a4c <dma_irq_handler+0x4c>
     c88:	4509                	c.li	a0,2
     c8a:	9782                	c.jalr	a5
     c8c:	dc1ff06f          	j	a4c <dma_irq_handler+0x4c>
     c90:	40b2                	c.lwsp	ra,12(sp)
     c92:	4422                	c.lwsp	s0,8(sp)
     c94:	0141                	c.addi	sp,16
     c96:	8082                	c.jr	ra

00000c98 <gpio_set_intr_mode>:
     c98:	4701                	c.li	a4,0
     c9a:	a02d                	c.j	cc4 <gpio_set_intr_mode+0x2c>
     c9c:	f07006b7          	lui	a3,0xf0700
     ca0:	0546a803          	lw	a6,84(a3) # f0700054 <boot_loader+0x70700054>
     ca4:	00271613          	slli	a2,a4,0x2
     ca8:	00c797b3          	sll	a5,a5,a2
     cac:	fff7c793          	not	a5,a5
     cb0:	00f877b3          	and	a5,a6,a5
     cb4:	cafc                	c.sw	a5,84(a3)
     cb6:	4afc                	c.lw	a5,84(a3)
     cb8:	00c51633          	sll	a2,a0,a2
     cbc:	8e5d                	c.or	a2,a5
     cbe:	caf0                	c.sw	a2,84(a3)
     cc0:	00170713          	addi	a4,a4,1 # f0c00001 <boot_loader+0x70c00001>
     cc4:	47fd                	c.li	a5,31
     cc6:	08e7ef63          	bltu	a5,a4,d64 <gpio_set_intr_mode+0xcc>
     cca:	4785                	c.li	a5,1
     ccc:	00e797b3          	sll	a5,a5,a4
     cd0:	8fed                	c.and	a5,a1
     cd2:	d7fd                	c.beqz	a5,cc0 <gpio_set_intr_mode+0x28>
     cd4:	479d                	c.li	a5,7
     cd6:	fce7f3e3          	bgeu	a5,a4,c9c <gpio_set_intr_mode+0x4>
     cda:	ff870793          	addi	a5,a4,-8
     cde:	469d                	c.li	a3,7
     ce0:	02f6fe63          	bgeu	a3,a5,d1c <gpio_set_intr_mode+0x84>
     ce4:	ff070793          	addi	a5,a4,-16
     ce8:	469d                	c.li	a3,7
     cea:	04f6fb63          	bgeu	a3,a5,d40 <gpio_set_intr_mode+0xa8>
     cee:	fe870793          	addi	a5,a4,-24
     cf2:	469d                	c.li	a3,7
     cf4:	fcf6e6e3          	bltu	a3,a5,cc0 <gpio_set_intr_mode+0x28>
     cf8:	f0700637          	lui	a2,0xf0700
     cfc:	06062803          	lw	a6,96(a2) # f0700060 <boot_loader+0x70700060>
     d00:	078a                	c.slli	a5,0x2
     d02:	00f696b3          	sll	a3,a3,a5
     d06:	fff6c693          	not	a3,a3
     d0a:	00d876b3          	and	a3,a6,a3
     d0e:	d234                	c.sw	a3,96(a2)
     d10:	5234                	c.lw	a3,96(a2)
     d12:	00f517b3          	sll	a5,a0,a5
     d16:	8fd5                	c.or	a5,a3
     d18:	d23c                	c.sw	a5,96(a2)
     d1a:	b75d                	c.j	cc0 <gpio_set_intr_mode+0x28>
     d1c:	f0700637          	lui	a2,0xf0700
     d20:	05862803          	lw	a6,88(a2) # f0700058 <boot_loader+0x70700058>
     d24:	078a                	c.slli	a5,0x2
     d26:	00f696b3          	sll	a3,a3,a5
     d2a:	fff6c693          	not	a3,a3
     d2e:	00d876b3          	and	a3,a6,a3
     d32:	ce34                	c.sw	a3,88(a2)
     d34:	4e34                	c.lw	a3,88(a2)
     d36:	00f517b3          	sll	a5,a0,a5
     d3a:	8fd5                	c.or	a5,a3
     d3c:	ce3c                	c.sw	a5,88(a2)
     d3e:	b749                	c.j	cc0 <gpio_set_intr_mode+0x28>
     d40:	f0700637          	lui	a2,0xf0700
     d44:	05c62803          	lw	a6,92(a2) # f070005c <boot_loader+0x7070005c>
     d48:	078a                	c.slli	a5,0x2
     d4a:	00f696b3          	sll	a3,a3,a5
     d4e:	fff6c693          	not	a3,a3
     d52:	00d876b3          	and	a3,a6,a3
     d56:	ce74                	c.sw	a3,92(a2)
     d58:	4e74                	c.lw	a3,92(a2)
     d5a:	00f517b3          	sll	a5,a0,a5
     d5e:	8fd5                	c.or	a5,a3
     d60:	ce7c                	c.sw	a5,92(a2)
     d62:	bfb9                	c.j	cc0 <gpio_set_intr_mode+0x28>
     d64:	8082                	c.jr	ra
     d66:	0001                	c.nop

00000d68 <gpio_get_version>:
     d68:	02090537          	lui	a0,0x2090
     d6c:	20256513          	ori	a0,a0,514
     d70:	8082                	c.jr	ra
     d72:	0001                	c.nop

00000d74 <gpio_pinwrite>:
     d74:	c981                	c.beqz	a1,d84 <gpio_pinwrite+0x10>
     d76:	4785                	c.li	a5,1
     d78:	00a79533          	sll	a0,a5,a0
     d7c:	f07007b7          	lui	a5,0xf0700
     d80:	db88                	c.sw	a0,48(a5)
     d82:	8082                	c.jr	ra
     d84:	4785                	c.li	a5,1
     d86:	00a79533          	sll	a0,a5,a0
     d8a:	f07007b7          	lui	a5,0xf0700
     d8e:	d7c8                	c.sw	a0,44(a5)
     d90:	8082                	c.jr	ra
     d92:	0001                	c.nop

00000d94 <gpio_pinread>:
     d94:	f07007b7          	lui	a5,0xf0700
     d98:	539c                	c.lw	a5,32(a5)
     d9a:	00a7d533          	srl	a0,a5,a0
     d9e:	8905                	c.andi	a0,1
     da0:	8082                	c.jr	ra
     da2:	0001                	c.nop

00000da4 <gpio_write>:
     da4:	c591                	c.beqz	a1,db0 <gpio_write+0xc>
     da6:	f07007b7          	lui	a5,0xf0700
     daa:	db88                	c.sw	a0,48(a5)
     dac:	00008067          	ret
     db0:	f07007b7          	lui	a5,0xf0700
     db4:	d7c8                	c.sw	a0,44(a5)
     db6:	8082                	c.jr	ra
     db8:	0001                	c.nop
     dba:	0001                	c.nop

00000dbc <gpio_read>:
     dbc:	f07007b7          	lui	a5,0xf0700
     dc0:	5388                	c.lw	a0,32(a5)
     dc2:	8082                	c.jr	ra
     dc4:	0001                	c.nop
     dc6:	0001                	c.nop

00000dc8 <gpio_setdir>:
     dc8:	c981                	c.beqz	a1,dd8 <gpio_setdir+0x10>
     dca:	f0700737          	lui	a4,0xf0700
     dce:	571c                	c.lw	a5,40(a4)
     dd0:	8d5d                	c.or	a0,a5
     dd2:	d708                	c.sw	a0,40(a4)
     dd4:	00008067          	ret
     dd8:	f0700737          	lui	a4,0xf0700
     ddc:	571c                	c.lw	a5,40(a4)
     dde:	fff54513          	not	a0,a0
     de2:	8d7d                	c.and	a0,a5
     de4:	d708                	c.sw	a0,40(a4)
     de6:	8082                	c.jr	ra
     de8:	0001                	c.nop
     dea:	0001                	c.nop

00000dec <gpio_control>:
     dec:	1101                	c.addi	sp,-32
     dee:	ce06                	c.swsp	ra,28(sp)
     df0:	cc22                	c.swsp	s0,24(sp)
     df2:	ca26                	c.swsp	s1,20(sp)
     df4:	c84a                	c.swsp	s2,16(sp)
     df6:	c64e                	c.swsp	s3,12(sp)
     df8:	842a                	c.mv	s0,a0
     dfa:	84ae                	c.mv	s1,a1
     dfc:	89b2                	c.mv	s3,a2
     dfe:	8936                	c.mv	s2,a3
     e00:	00857793          	andi	a5,a0,8
     e04:	e395                	c.bnez	a5,e28 <gpio_control+0x3c>
     e06:	00457793          	andi	a5,a0,4
     e0a:	ebf9                	c.bnez	a5,ee0 <gpio_control+0xf4>
     e0c:	01057793          	andi	a5,a0,16
     e10:	efe1                	c.bnez	a5,ee8 <gpio_control+0xfc>
     e12:	02057793          	andi	a5,a0,32
     e16:	0c079d63          	bnez	a5,ef0 <gpio_control+0x104>
     e1a:	04057793          	andi	a5,a0,64
     e1e:	c799                	c.beqz	a5,e2c <gpio_control+0x40>
     e20:	451d                	c.li	a0,7
     e22:	3d9d                	c.jal	c98 <gpio_set_intr_mode>
     e24:	0080006f          	j	e2c <gpio_control+0x40>
     e28:	4509                	c.li	a0,2
     e2a:	35bd                	c.jal	c98 <gpio_set_intr_mode>
     e2c:	00247793          	andi	a5,s0,2
     e30:	c7e1                	c.beqz	a5,ef8 <gpio_control+0x10c>
     e32:	f0700737          	lui	a4,0xf0700
     e36:	4b3c                	c.lw	a5,80(a4)
     e38:	fff4c693          	not	a3,s1
     e3c:	8ff5                	c.and	a5,a3
     e3e:	cb3c                	c.sw	a5,80(a4)
     e40:	08047793          	andi	a5,s0,128
     e44:	c791                	c.beqz	a5,e50 <gpio_control+0x64>
     e46:	f0700737          	lui	a4,0xf0700
     e4a:	537c                	c.lw	a5,100(a4)
     e4c:	8fc5                	c.or	a5,s1
     e4e:	d37c                	c.sw	a5,100(a4)
     e50:	20047793          	andi	a5,s0,512
     e54:	cfc5                	c.beqz	a5,f0c <gpio_control+0x120>
     e56:	f0700737          	lui	a4,0xf0700
     e5a:	433c                	c.lw	a5,64(a4)
     e5c:	fff4c693          	not	a3,s1
     e60:	8ff5                	c.and	a5,a3
     e62:	c33c                	c.sw	a5,64(a4)
     e64:	40047793          	andi	a5,s0,1024
     e68:	cfc5                	c.beqz	a5,f20 <gpio_control+0x134>
     e6a:	f0700737          	lui	a4,0xf0700
     e6e:	437c                	c.lw	a5,68(a4)
     e70:	fff4c693          	not	a3,s1
     e74:	8ff5                	c.and	a5,a3
     e76:	c37c                	c.sw	a5,68(a4)
     e78:	6789                	c.lui	a5,0x2
     e7a:	8fe1                	c.and	a5,s0
     e7c:	cfd5                	c.beqz	a5,f38 <gpio_control+0x14c>
     e7e:	f0700737          	lui	a4,0xf0700
     e82:	5b3c                	c.lw	a5,112(a4)
     e84:	fff4c493          	not	s1,s1
     e88:	8cfd                	c.and	s1,a5
     e8a:	db24                	c.sw	s1,112(a4)
     e8c:	6791                	c.lui	a5,0x4
     e8e:	8fe1                	c.and	a5,s0
     e90:	c385                	c.beqz	a5,eb0 <gpio_control+0xc4>
     e92:	f07007b7          	lui	a5,0xf0700
     e96:	5bf8                	c.lw	a4,116(a5)
     e98:	800006b7          	lui	a3,0x80000
     e9c:	fff6c693          	not	a3,a3
     ea0:	8f75                	c.and	a4,a3
     ea2:	dbf8                	c.sw	a4,116(a5)
     ea4:	5bf0                	c.lw	a2,116(a5)
     ea6:	09fe                	c.slli	s3,0x1f
     ea8:	013669b3          	or	s3,a2,s3
     eac:	0737aa23          	sw	s3,116(a5) # f0700074 <boot_loader+0x70700074>
     eb0:	6521                	c.lui	a0,0x8
     eb2:	8c69                	c.and	s0,a0
     eb4:	cc11                	c.beqz	s0,ed0 <gpio_control+0xe4>
     eb6:	f07007b7          	lui	a5,0xf0700
     eba:	5bf8                	c.lw	a4,116(a5)
     ebc:	f0077713          	andi	a4,a4,-256
     ec0:	dbf8                	c.sw	a4,116(a5)
     ec2:	5bf4                	c.lw	a3,116(a5)
     ec4:	0ff97913          	andi	s2,s2,255
     ec8:	0126e933          	or	s2,a3,s2
     ecc:	0727aa23          	sw	s2,116(a5) # f0700074 <boot_loader+0x70700074>
     ed0:	4501                	c.li	a0,0
     ed2:	40f2                	c.lwsp	ra,28(sp)
     ed4:	4462                	c.lwsp	s0,24(sp)
     ed6:	44d2                	c.lwsp	s1,20(sp)
     ed8:	4942                	c.lwsp	s2,16(sp)
     eda:	49b2                	c.lwsp	s3,12(sp)
     edc:	6105                	c.addi16sp	sp,32
     ede:	8082                	c.jr	ra
     ee0:	450d                	c.li	a0,3
     ee2:	3b5d                	c.jal	c98 <gpio_set_intr_mode>
     ee4:	f49ff06f          	j	e2c <gpio_control+0x40>
     ee8:	4515                	c.li	a0,5
     eea:	337d                	c.jal	c98 <gpio_set_intr_mode>
     eec:	f41ff06f          	j	e2c <gpio_control+0x40>
     ef0:	4519                	c.li	a0,6
     ef2:	335d                	c.jal	c98 <gpio_set_intr_mode>
     ef4:	f39ff06f          	j	e2c <gpio_control+0x40>
     ef8:	00147793          	andi	a5,s0,1
     efc:	d3b1                	c.beqz	a5,e40 <gpio_control+0x54>
     efe:	f0700737          	lui	a4,0xf0700
     f02:	4b3c                	c.lw	a5,80(a4)
     f04:	8fc5                	c.or	a5,s1
     f06:	cb3c                	c.sw	a5,80(a4)
     f08:	f39ff06f          	j	e40 <gpio_control+0x54>
     f0c:	10047793          	andi	a5,s0,256
     f10:	dbb1                	c.beqz	a5,e64 <gpio_control+0x78>
     f12:	f0700737          	lui	a4,0xf0700
     f16:	433c                	c.lw	a5,64(a4)
     f18:	8fc5                	c.or	a5,s1
     f1a:	c33c                	c.sw	a5,64(a4)
     f1c:	f49ff06f          	j	e64 <gpio_control+0x78>
     f20:	6785                	c.lui	a5,0x1
     f22:	80078793          	addi	a5,a5,-2048 # 800 <dma_channel_configure+0x178>
     f26:	8fe1                	c.and	a5,s0
     f28:	dba1                	c.beqz	a5,e78 <gpio_control+0x8c>
     f2a:	f0700737          	lui	a4,0xf0700
     f2e:	437c                	c.lw	a5,68(a4)
     f30:	8fc5                	c.or	a5,s1
     f32:	c37c                	c.sw	a5,68(a4)
     f34:	f45ff06f          	j	e78 <gpio_control+0x8c>
     f38:	6785                	c.lui	a5,0x1
     f3a:	8fe1                	c.and	a5,s0
     f3c:	dba1                	c.beqz	a5,e8c <gpio_control+0xa0>
     f3e:	f07007b7          	lui	a5,0xf0700
     f42:	5bac                	c.lw	a1,112(a5)
     f44:	8ccd                	c.or	s1,a1
     f46:	dba4                	c.sw	s1,112(a5)
     f48:	b791                	c.j	e8c <gpio_control+0xa0>
     f4a:	0001                	c.nop

00000f4c <gpio_get_status>:
     f4c:	f07007b7          	lui	a5,0xf0700
     f50:	4b90                	c.lw	a2,16(a5)
     f52:	01f65713          	srli	a4,a2,0x1f
     f56:	00055683          	lhu	a3,0(a0) # 8000 <__global_pointer$+0x4a88>
     f5a:	9af9                	c.andi	a3,-2
     f5c:	8ed9                	c.or	a3,a4
     f5e:	00d51023          	sh	a3,0(a0)
     f62:	01e65713          	srli	a4,a2,0x1e
     f66:	8b05                	c.andi	a4,1
     f68:	00171793          	slli	a5,a4,0x1
     f6c:	ffd6f713          	andi	a4,a3,-3
     f70:	8f5d                	c.or	a4,a5
     f72:	00e51023          	sh	a4,0(a0)
     f76:	01d65793          	srli	a5,a2,0x1d
     f7a:	8b85                	c.andi	a5,1
     f7c:	078a                	c.slli	a5,0x2
     f7e:	9b6d                	c.andi	a4,-5
     f80:	8fd9                	c.or	a5,a4
     f82:	00f51023          	sh	a5,0(a0)
     f86:	03f67613          	andi	a2,a2,63
     f8a:	060e                	c.slli	a2,0x3
     f8c:	e077f793          	andi	a5,a5,-505
     f90:	8fd1                	c.or	a5,a2
     f92:	00f51023          	sh	a5,0(a0)
     f96:	4501                	c.li	a0,0
     f98:	8082                	c.jr	ra
     f9a:	0001                	c.nop

00000f9c <gpio_uninitialize>:
     f9c:	f07007b7          	lui	a5,0xf0700
     fa0:	0407a823          	sw	zero,80(a5) # f0700050 <boot_loader+0x70700050>
     fa4:	577d                	c.li	a4,-1
     fa6:	d3f8                	c.sw	a4,100(a5)
     fa8:	f14027f3          	csrr	a5,mhartid
     fac:	079e                	c.slli	a5,0x7
     fae:	e4002737          	lui	a4,0xe4002
     fb2:	97ba                	c.add	a5,a4
     fb4:	4398                	c.lw	a4,0(a5)
     fb6:	f7f77713          	andi	a4,a4,-129
     fba:	c398                	c.sw	a4,0(a5)
     fbc:	820fcbab          	swgp	zero,-1996 # 2dac <gpio_info>
     fc0:	4501                	c.li	a0,0
     fc2:	8082                	c.jr	ra
     fc4:	0001                	c.nop
     fc6:	0001                	c.nop

00000fc8 <gpio_initialize>:
     fc8:	f07007b7          	lui	a5,0xf0700
     fcc:	0407a823          	sw	zero,80(a5) # f0700050 <boot_loader+0x70700050>
     fd0:	577d                	c.li	a4,-1
     fd2:	d3f8                	c.sw	a4,100(a5)
     fd4:	e40007b7          	lui	a5,0xe4000
     fd8:	4705                	c.li	a4,1
     fda:	cfd8                	c.sw	a4,28(a5)
     fdc:	f14027f3          	csrr	a5,mhartid
     fe0:	079e                	c.slli	a5,0x7
     fe2:	e4002737          	lui	a4,0xe4002
     fe6:	97ba                	c.add	a5,a4
     fe8:	4398                	c.lw	a4,0(a5)
     fea:	08076713          	ori	a4,a4,128
     fee:	c398                	c.sw	a4,0(a5)
     ff0:	6785                	c.lui	a5,0x1
     ff2:	80078793          	addi	a5,a5,-2048 # 800 <dma_channel_configure+0x178>
     ff6:	3047a7f3          	csrrs	a5,mie,a5
     ffa:	300467f3          	csrrsi	a5,mstatus,8
     ffe:	82afcbab          	swgp	a0,-1996 # 2dac <gpio_info>
    1002:	4501                	c.li	a0,0
    1004:	8082                	c.jr	ra
    1006:	0001                	c.nop

00001008 <gpio_irq_handler>:
    1008:	1141                	c.addi	sp,-16
    100a:	c606                	c.swsp	ra,12(sp)
    100c:	c422                	c.swsp	s0,8(sp)
    100e:	c226                	c.swsp	s1,4(sp)
    1010:	f07007b7          	lui	a5,0xf0700
    1014:	53e4                	c.lw	s1,100(a5)
    1016:	d3e4                	c.sw	s1,100(a5)
    1018:	4401                	c.li	s0,0
    101a:	a019                	c.j	1020 <gpio_irq_handler+0x18>
    101c:	00140413          	addi	s0,s0,1
    1020:	47fd                	c.li	a5,31
    1022:	0087ef63          	bltu	a5,s0,1040 <gpio_irq_handler+0x38>
    1026:	4785                	c.li	a5,1
    1028:	008797b3          	sll	a5,a5,s0
    102c:	8fe5                	c.and	a5,s1
    102e:	d7fd                	c.beqz	a5,101c <gpio_irq_handler+0x14>
    1030:	4505                	c.li	a0,1
    1032:	00851533          	sll	a0,a0,s0
    1036:	837fa7ab          	lwgp	a5,-1996 # 2dac <gpio_info>
    103a:	9782                	c.jalr	a5
    103c:	fe1ff06f          	j	101c <gpio_irq_handler+0x14>
    1040:	40b2                	c.lwsp	ra,12(sp)
    1042:	4422                	c.lwsp	s0,8(sp)
    1044:	4492                	c.lwsp	s1,4(sp)
    1046:	0141                	c.addi	sp,16
    1048:	8082                	c.jr	ra
    104a:	0001                	c.nop

0000104c <i2cx_signalevent>:
    104c:	45dc                	c.lw	a5,12(a1)
    104e:	439c                	c.lw	a5,0(a5)
    1050:	cb81                	c.beqz	a5,1060 <i2cx_signalevent+0x14>
    1052:	1141                	c.addi	sp,-16
    1054:	c606                	c.swsp	ra,12(sp)
    1056:	9782                	c.jalr	a5
    1058:	40b2                	c.lwsp	ra,12(sp)
    105a:	0141                	c.addi	sp,16
    105c:	00008067          	ret
    1060:	8082                	c.jr	ra
    1062:	0001                	c.nop

00001064 <i2cx_master_fifo_write>:
    1064:	4558                	c.lw	a4,12(a0)
    1066:	575c                	c.lw	a5,44(a4)
    1068:	5b54                	c.lw	a3,52(a4)
    106a:	8f95                	c.sub	a5,a3
    106c:	5350                	c.lw	a2,36(a4)
    106e:	00c7f363          	bgeu	a5,a2,1074 <i2cx_master_fifo_write+0x10>
    1072:	863e                	c.mv	a2,a5
    1074:	c191                	c.beqz	a1,1078 <i2cx_master_fifo_write+0x14>
    1076:	4609                	c.li	a2,2
    1078:	4701                	c.li	a4,0
    107a:	a019                	c.j	1080 <i2cx_master_fifo_write+0x1c>
    107c:	00170713          	addi	a4,a4,1 # e4002001 <boot_loader+0x64002001>
    1080:	02c77863          	bgeu	a4,a2,10b0 <i2cx_master_fifo_write+0x4c>
    1084:	4554                	c.lw	a3,12(a0)
    1086:	4adc                	c.lw	a5,20(a3)
    1088:	5ad4                	c.lw	a3,52(a3)
    108a:	97b6                	c.add	a5,a3
    108c:	0007c683          	lbu	a3,0(a5) # f0700000 <boot_loader+0x70700000>
    1090:	411c                	c.lw	a5,0(a0)
    1092:	d394                	c.sw	a3,32(a5)
    1094:	4554                	c.lw	a3,12(a0)
    1096:	5adc                	c.lw	a5,52(a3)
    1098:	0785                	c.addi	a5,1
    109a:	dadc                	c.sw	a5,52(a3)
    109c:	455c                	c.lw	a5,12(a0)
    109e:	5bd4                	c.lw	a3,52(a5)
    10a0:	57dc                	c.lw	a5,44(a5)
    10a2:	fcf69de3          	bne	a3,a5,107c <i2cx_master_fifo_write+0x18>
    10a6:	4114                	c.lw	a3,0(a0)
    10a8:	4adc                	c.lw	a5,20(a3)
    10aa:	9bf9                	c.andi	a5,-2
    10ac:	cadc                	c.sw	a5,20(a3)
    10ae:	b7f9                	c.j	107c <i2cx_master_fifo_write+0x18>
    10b0:	8082                	c.jr	ra
    10b2:	0001                	c.nop

000010b4 <i2cx_fifo_empty_handler>:
    10b4:	455c                	c.lw	a5,12(a0)
    10b6:	47d4                	c.lw	a3,12(a5)
    10b8:	4709                	c.li	a4,2
    10ba:	00e69f63          	bne	a3,a4,10d8 <i2cx_fifo_empty_handler+0x24>
    10be:	4798                	c.lw	a4,8(a5)
    10c0:	8b21                	c.andi	a4,8
    10c2:	e319                	c.bnez	a4,10c8 <i2cx_fifo_empty_handler+0x14>
    10c4:	479c                	c.lw	a5,8(a5)
    10c6:	8082                	c.jr	ra
    10c8:	1141                	c.addi	sp,-16
    10ca:	c606                	c.swsp	ra,12(sp)
    10cc:	4581                	c.li	a1,0
    10ce:	3f59                	c.jal	1064 <i2cx_master_fifo_write>
    10d0:	40b2                	c.lwsp	ra,12(sp)
    10d2:	0141                	c.addi	sp,16
    10d4:	00008067          	ret
    10d8:	8082                	c.jr	ra
    10da:	0001                	c.nop

000010dc <i2cx_master_fifo_read>:
    10dc:	4558                	c.lw	a4,12(a0)
    10de:	5b1c                	c.lw	a5,48(a4)
    10e0:	5f14                	c.lw	a3,56(a4)
    10e2:	8f95                	c.sub	a5,a3
    10e4:	534c                	c.lw	a1,36(a4)
    10e6:	00b7f363          	bgeu	a5,a1,10ec <i2cx_master_fifo_read+0x10>
    10ea:	85be                	c.mv	a1,a5
    10ec:	4701                	c.li	a4,0
    10ee:	a019                	c.j	10f4 <i2cx_master_fifo_read+0x18>
    10f0:	00170713          	addi	a4,a4,1
    10f4:	02b77863          	bgeu	a4,a1,1124 <i2cx_master_fifo_read+0x48>
    10f8:	411c                	c.lw	a5,0(a0)
    10fa:	5390                	c.lw	a2,32(a5)
    10fc:	4554                	c.lw	a3,12(a0)
    10fe:	4a9c                	c.lw	a5,16(a3)
    1100:	5e94                	c.lw	a3,56(a3)
    1102:	97b6                	c.add	a5,a3
    1104:	00c78023          	sb	a2,0(a5)
    1108:	4554                	c.lw	a3,12(a0)
    110a:	5e9c                	c.lw	a5,56(a3)
    110c:	0785                	c.addi	a5,1
    110e:	de9c                	c.sw	a5,56(a3)
    1110:	455c                	c.lw	a5,12(a0)
    1112:	5f94                	c.lw	a3,56(a5)
    1114:	5b9c                	c.lw	a5,48(a5)
    1116:	fcf69de3          	bne	a3,a5,10f0 <i2cx_master_fifo_read+0x14>
    111a:	4114                	c.lw	a3,0(a0)
    111c:	4adc                	c.lw	a5,20(a3)
    111e:	9bf5                	c.andi	a5,-3
    1120:	cadc                	c.sw	a5,20(a3)
    1122:	b7f9                	c.j	10f0 <i2cx_master_fifo_read+0x14>
    1124:	8082                	c.jr	ra
    1126:	0001                	c.nop

00001128 <i2cx_slave_fifo_read>:
    1128:	455c                	c.lw	a5,12(a0)
    112a:	1407c803          	lbu	a6,320(a5)
    112e:	c989                	c.beqz	a1,1140 <i2cx_slave_fifo_read+0x18>
    1130:	0247a583          	lw	a1,36(a5)
    1134:	10000793          	li	a5,256
    1138:	04b7f463          	bgeu	a5,a1,1180 <i2cx_slave_fifo_read+0x58>
    113c:	0000006f          	j	113c <i2cx_slave_fifo_read+0x14>
    1140:	4f8c                	c.lw	a1,24(a5)
    1142:	40b805b3          	sub	a1,a6,a1
    1146:	b7fd                	c.j	1134 <i2cx_slave_fifo_read+0xc>
    1148:	00170713          	addi	a4,a4,1
    114c:	02b77c63          	bgeu	a4,a1,1184 <i2cx_slave_fifo_read+0x5c>
    1150:	411c                	c.lw	a5,0(a0)
    1152:	5394                	c.lw	a3,32(a5)
    1154:	455c                	c.lw	a5,12(a0)
    1156:	5f90                	c.lw	a2,56(a5)
    1158:	97b2                	c.add	a5,a2
    115a:	04d78023          	sb	a3,64(a5)
    115e:	4554                	c.lw	a3,12(a0)
    1160:	5e9c                	c.lw	a5,56(a3)
    1162:	0785                	c.addi	a5,1
    1164:	de9c                	c.sw	a5,56(a3)
    1166:	455c                	c.lw	a5,12(a0)
    1168:	5f90                	c.lw	a2,56(a5)
    116a:	10000693          	li	a3,256
    116e:	fcd61de3          	bne	a2,a3,1148 <i2cx_slave_fifo_read+0x20>
    1172:	5fd4                	c.lw	a3,60(a5)
    1174:	0685                	c.addi	a3,1
    1176:	dfd4                	c.sw	a3,60(a5)
    1178:	455c                	c.lw	a5,12(a0)
    117a:	0207ac23          	sw	zero,56(a5)
    117e:	b7e9                	c.j	1148 <i2cx_slave_fifo_read+0x20>
    1180:	4701                	c.li	a4,0
    1182:	b7e9                	c.j	114c <i2cx_slave_fifo_read+0x24>
    1184:	455c                	c.lw	a5,12(a0)
    1186:	0107ac23          	sw	a6,24(a5)
    118a:	8082                	c.jr	ra
    118c:	0001                	c.nop
    118e:	0001                	c.nop

00001190 <i2c_cmpl_handler>:
    1190:	1141                	c.addi	sp,-16
    1192:	c606                	c.swsp	ra,12(sp)
    1194:	c422                	c.swsp	s0,8(sp)
    1196:	c226                	c.swsp	s1,4(sp)
    1198:	c04a                	c.swsp	s2,0(sp)
    119a:	842a                	c.mv	s0,a0
    119c:	4118                	c.lw	a4,0(a0)
    119e:	575c                	c.lw	a5,44(a4)
    11a0:	8b91                	c.andi	a5,4
    11a2:	c789                	c.beqz	a5,11ac <i2c_cmpl_handler+0x1c>
    11a4:	4b5c                	c.lw	a5,20(a4)
    11a6:	c007f793          	andi	a5,a5,-1024
    11aa:	cb5c                	c.sw	a5,20(a4)
    11ac:	4444                	c.lw	s1,12(s0)
    11ae:	449c                	c.lw	a5,8(s1)
    11b0:	8ba1                	c.andi	a5,8
    11b2:	e789                	c.bnez	a5,11bc <i2c_cmpl_handler+0x2c>
    11b4:	449c                	c.lw	a5,8(s1)
    11b6:	8bc1                	c.andi	a5,16
    11b8:	06078263          	beqz	a5,121c <i2c_cmpl_handler+0x8c>
    11bc:	401c                	c.lw	a5,0(s0)
    11be:	0247a903          	lw	s2,36(a5)
    11c2:	449c                	c.lw	a5,8(s1)
    11c4:	8ba1                	c.andi	a5,8
    11c6:	c79d                	c.beqz	a5,11f4 <i2c_cmpl_handler+0x64>
    11c8:	405c                	c.lw	a5,4(s0)
    11ca:	c3f9                	c.beqz	a5,1290 <i2c_cmpl_handler+0x100>
    11cc:	4509                	c.li	a0,2
    11ce:	ffaff0ef          	jal	ra,9c8 <dma_channel_get_count>
    11d2:	d8c8                	c.sw	a0,52(s1)
    11d4:	4444                	c.lw	s1,12(s0)
    11d6:	4509                	c.li	a0,2
    11d8:	ff0ff0ef          	jal	ra,9c8 <dma_channel_get_count>
    11dc:	14a4a423          	sw	a0,328(s1)
    11e0:	445c                	c.lw	a5,12(s0)
    11e2:	08000713          	li	a4,128
    11e6:	c798                	c.sw	a4,8(a5)
    11e8:	4458                	c.lw	a4,12(s0)
    11ea:	14474783          	lbu	a5,324(a4)
    11ee:	9bf9                	c.andi	a5,-2
    11f0:	14f70223          	sb	a5,324(a4)
    11f4:	4444                	c.lw	s1,12(s0)
    11f6:	449c                	c.lw	a5,8(s1)
    11f8:	8bc1                	c.andi	a5,16
    11fa:	c38d                	c.beqz	a5,121c <i2c_cmpl_handler+0x8c>
    11fc:	441c                	c.lw	a5,8(s0)
    11fe:	c3cd                	c.beqz	a5,12a0 <i2c_cmpl_handler+0x110>
    1200:	450d                	c.li	a0,3
    1202:	fc6ff0ef          	jal	ra,9c8 <dma_channel_get_count>
    1206:	dc88                	c.sw	a0,56(s1)
    1208:	4444                	c.lw	s1,12(s0)
    120a:	450d                	c.li	a0,3
    120c:	fbcff0ef          	jal	ra,9c8 <dma_channel_get_count>
    1210:	14a4a423          	sw	a0,328(s1)
    1214:	445c                	c.lw	a5,12(s0)
    1216:	10000713          	li	a4,256
    121a:	c798                	c.sw	a4,8(a5)
    121c:	4458                	c.lw	a4,12(s0)
    121e:	471c                	c.lw	a5,8(a4)
    1220:	0207f793          	andi	a5,a5,32
    1224:	e791                	c.bnez	a5,1230 <i2c_cmpl_handler+0xa0>
    1226:	471c                	c.lw	a5,8(a4)
    1228:	0407f793          	andi	a5,a5,64
    122c:	04078663          	beqz	a5,1278 <i2c_cmpl_handler+0xe8>
    1230:	4014                	c.lw	a3,0(s0)
    1232:	56dc                	c.lw	a5,44(a3)
    1234:	52c4                	c.lw	s1,36(a3)
    1236:	8ba1                	c.andi	a5,8
    1238:	efc5                	c.bnez	a5,12f0 <i2c_cmpl_handler+0x160>
    123a:	471c                	c.lw	a5,8(a4)
    123c:	0207f793          	andi	a5,a5,32
    1240:	cb91                	c.beqz	a5,1254 <i2c_cmpl_handler+0xc4>
    1242:	4adc                	c.lw	a5,20(a3)
    1244:	f7f7f793          	andi	a5,a5,-129
    1248:	cadc                	c.sw	a5,20(a3)
    124a:	445c                	c.lw	a5,12(s0)
    124c:	20000713          	li	a4,512
    1250:	00e7a423          	sw	a4,8(a5)
    1254:	445c                	c.lw	a5,12(s0)
    1256:	479c                	c.lw	a5,8(a5)
    1258:	0407f793          	andi	a5,a5,64
    125c:	06079863          	bnez	a5,12cc <i2c_cmpl_handler+0x13c>
    1260:	4458                	c.lw	a4,12(s0)
    1262:	14474783          	lbu	a5,324(a4)
    1266:	9bf9                	c.andi	a5,-2
    1268:	14f70223          	sb	a5,324(a4)
    126c:	4018                	c.lw	a4,0(s0)
    126e:	571c                	c.lw	a5,40(a4)
    1270:	9be1                	c.andi	a5,-8
    1272:	0047e793          	ori	a5,a5,4
    1276:	d71c                	c.sw	a5,40(a4)
    1278:	4458                	c.lw	a4,12(s0)
    127a:	14474783          	lbu	a5,324(a4)
    127e:	9bcd                	c.andi	a5,-13
    1280:	14f70223          	sb	a5,324(a4)
    1284:	40b2                	c.lwsp	ra,12(sp)
    1286:	4422                	c.lwsp	s0,8(sp)
    1288:	4492                	c.lwsp	s1,4(sp)
    128a:	4902                	c.lwsp	s2,0(sp)
    128c:	0141                	c.addi	sp,16
    128e:	8082                	c.jr	ra
    1290:	54dc                	c.lw	a5,44(s1)
    1292:	0ff97713          	andi	a4,s2,255
    1296:	8f99                	c.sub	a5,a4
    1298:	14f4a423          	sw	a5,328(s1)
    129c:	f45ff06f          	j	11e0 <i2c_cmpl_handler+0x50>
    12a0:	8522                	c.mv	a0,s0
    12a2:	3d2d                	c.jal	10dc <i2cx_master_fifo_read>
    12a4:	4458                	c.lw	a4,12(s0)
    12a6:	5b1c                	c.lw	a5,48(a4)
    12a8:	0ff97913          	andi	s2,s2,255
    12ac:	41278933          	sub	s2,a5,s2
    12b0:	15272423          	sw	s2,328(a4)
    12b4:	445c                	c.lw	a5,12(s0)
    12b6:	10000713          	li	a4,256
    12ba:	c798                	c.sw	a4,8(a5)
    12bc:	4458                	c.lw	a4,12(s0)
    12be:	14474783          	lbu	a5,324(a4)
    12c2:	9bf9                	c.andi	a5,-2
    12c4:	14f70223          	sb	a5,324(a4)
    12c8:	f55ff06f          	j	121c <i2c_cmpl_handler+0x8c>
    12cc:	4581                	c.li	a1,0
    12ce:	8522                	c.mv	a0,s0
    12d0:	3da1                	c.jal	1128 <i2cx_slave_fifo_read>
    12d2:	4018                	c.lw	a4,0(s0)
    12d4:	4b5c                	c.lw	a5,20(a4)
    12d6:	9bf5                	c.andi	a5,-3
    12d8:	cb5c                	c.sw	a5,20(a4)
    12da:	445c                	c.lw	a5,12(s0)
    12dc:	5f98                	c.lw	a4,56(a5)
    12de:	4fd4                	c.lw	a3,28(a5)
    12e0:	8f15                	c.sub	a4,a3
    12e2:	14e7a423          	sw	a4,328(a5)
    12e6:	445c                	c.lw	a5,12(s0)
    12e8:	40000713          	li	a4,1024
    12ec:	c798                	c.sw	a4,8(a5)
    12ee:	bf8d                	c.j	1260 <i2c_cmpl_handler+0xd0>
    12f0:	471c                	c.lw	a5,8(a4)
    12f2:	0207f793          	andi	a5,a5,32
    12f6:	ef9d                	c.bnez	a5,1334 <i2c_cmpl_handler+0x1a4>
    12f8:	00c42903          	lw	s2,12(s0)
    12fc:	00892783          	lw	a5,8(s2)
    1300:	0407f793          	andi	a5,a5,64
    1304:	d7a5                	c.beqz	a5,126c <i2c_cmpl_handler+0xdc>
    1306:	450d                	c.li	a0,3
    1308:	ec0ff0ef          	jal	ra,9c8 <dma_channel_get_count>
    130c:	14a92423          	sw	a0,328(s2)
    1310:	450d                	c.li	a0,3
    1312:	dd6ff0ef          	jal	ra,8e8 <dma_channel_abort>
    1316:	0ff4f493          	andi	s1,s1,255
    131a:	829fcdab          	swgp	s1,-1992 # 2db0 <check>
    131e:	445c                	c.lw	a5,12(s0)
    1320:	40000713          	li	a4,1024
    1324:	c798                	c.sw	a4,8(a5)
    1326:	4458                	c.lw	a4,12(s0)
    1328:	14474783          	lbu	a5,324(a4)
    132c:	9bf9                	c.andi	a5,-2
    132e:	14f70223          	sb	a5,324(a4)
    1332:	bf2d                	c.j	126c <i2c_cmpl_handler+0xdc>
    1334:	4adc                	c.lw	a5,20(a3)
    1336:	f7f7f793          	andi	a5,a5,-129
    133a:	cadc                	c.sw	a5,20(a3)
    133c:	00c42903          	lw	s2,12(s0)
    1340:	4509                	c.li	a0,2
    1342:	e86ff0ef          	jal	ra,9c8 <dma_channel_get_count>
    1346:	02a92a23          	sw	a0,52(s2)
    134a:	00c42903          	lw	s2,12(s0)
    134e:	4509                	c.li	a0,2
    1350:	e78ff0ef          	jal	ra,9c8 <dma_channel_get_count>
    1354:	14a92423          	sw	a0,328(s2)
    1358:	445c                	c.lw	a5,12(s0)
    135a:	20000713          	li	a4,512
    135e:	c798                	c.sw	a4,8(a5)
    1360:	4458                	c.lw	a4,12(s0)
    1362:	14474783          	lbu	a5,324(a4)
    1366:	9bf9                	c.andi	a5,-2
    1368:	14f70223          	sb	a5,324(a4)
    136c:	b771                	c.j	12f8 <i2c_cmpl_handler+0x168>
    136e:	0001                	c.nop

00001370 <i2cx_fifo_full_handler>:
    1370:	455c                	c.lw	a5,12(a0)
    1372:	47d4                	c.lw	a3,12(a5)
    1374:	4709                	c.li	a4,2
    1376:	02e69563          	bne	a3,a4,13a0 <i2cx_fifo_full_handler+0x30>
    137a:	1141                	c.addi	sp,-16
    137c:	c606                	c.swsp	ra,12(sp)
    137e:	4798                	c.lw	a4,8(a5)
    1380:	8b41                	c.andi	a4,16
    1382:	eb09                	c.bnez	a4,1394 <i2cx_fifo_full_handler+0x24>
    1384:	479c                	c.lw	a5,8(a5)
    1386:	0407f793          	andi	a5,a5,64
    138a:	e799                	c.bnez	a5,1398 <i2cx_fifo_full_handler+0x28>
    138c:	40b2                	c.lwsp	ra,12(sp)
    138e:	0141                	c.addi	sp,16
    1390:	00008067          	ret
    1394:	33a1                	c.jal	10dc <i2cx_master_fifo_read>
    1396:	bfdd                	c.j	138c <i2cx_fifo_full_handler+0x1c>
    1398:	4585                	c.li	a1,1
    139a:	3379                	c.jal	1128 <i2cx_slave_fifo_read>
    139c:	ff1ff06f          	j	138c <i2cx_fifo_full_handler+0x1c>
    13a0:	8082                	c.jr	ra
    13a2:	0001                	c.nop

000013a4 <i2cx_slave_addr_hit_handler>:
    13a4:	455c                	c.lw	a5,12(a0)
    13a6:	47d4                	c.lw	a3,12(a5)
    13a8:	4709                	c.li	a4,2
    13aa:	0ae69d63          	bne	a3,a4,1464 <i2cx_slave_addr_hit_handler+0xc0>
    13ae:	1141                	c.addi	sp,-16
    13b0:	c606                	c.swsp	ra,12(sp)
    13b2:	c422                	c.swsp	s0,8(sp)
    13b4:	842a                	c.mv	s0,a0
    13b6:	4798                	c.lw	a4,8(a5)
    13b8:	04077713          	andi	a4,a4,64
    13bc:	e305                	c.bnez	a4,13dc <i2cx_slave_addr_hit_handler+0x38>
    13be:	4798                	c.lw	a4,8(a5)
    13c0:	02077713          	andi	a4,a4,32
    13c4:	cb01                	c.beqz	a4,13d4 <i2cx_slave_addr_hit_handler+0x30>
    13c6:	02078023          	sb	zero,32(a5)
    13ca:	4118                	c.lw	a4,0(a0)
    13cc:	4b5c                	c.lw	a5,20(a4)
    13ce:	0807e793          	ori	a5,a5,128
    13d2:	cb5c                	c.sw	a5,20(a4)
    13d4:	40b2                	c.lwsp	ra,12(sp)
    13d6:	4422                	c.lwsp	s0,8(sp)
    13d8:	0141                	c.addi	sp,16
    13da:	8082                	c.jr	ra
    13dc:	0207ae23          	sw	zero,60(a5)
    13e0:	455c                	c.lw	a5,12(a0)
    13e2:	0207ac23          	sw	zero,56(a5)
    13e6:	455c                	c.lw	a5,12(a0)
    13e8:	0007ae23          	sw	zero,28(a5)
    13ec:	4548                	c.lw	a0,12(a0)
    13ee:	10000613          	li	a2,256
    13f2:	4581                	c.li	a1,0
    13f4:	04050513          	addi	a0,a0,64
    13f8:	2b5000ef          	jal	ra,1eac <memset>
    13fc:	441c                	c.lw	a5,8(s0)
    13fe:	cba9                	c.beqz	a5,1450 <i2cx_slave_addr_hit_handler+0xac>
    1400:	445c                	c.lw	a5,12(s0)
    1402:	1407c703          	lbu	a4,320(a5)
    1406:	cf98                	c.sw	a4,24(a5)
    1408:	4018                	c.lw	a4,0(s0)
    140a:	535c                	c.lw	a5,36(a4)
    140c:	f007f793          	andi	a5,a5,-256
    1410:	d35c                	c.sw	a5,36(a4)
    1412:	4408                	c.lw	a0,8(s0)
    1414:	400c                	c.lw	a1,0(s0)
    1416:	00c42803          	lw	a6,12(s0)
    141a:	03882603          	lw	a2,56(a6)
    141e:	04060613          	addi	a2,a2,64
    1422:	00154703          	lbu	a4,1(a0)
    1426:	0722                	c.slli	a4,0x8
    1428:	6785                	c.lui	a5,0x1
    142a:	f0078793          	addi	a5,a5,-256 # f00 <gpio_control+0x114>
    142e:	8f7d                	c.and	a4,a5
    1430:	415c                	c.lw	a5,4(a0)
    1432:	c00286b7          	lui	a3,0xc0028
    1436:	0685                	c.addi	a3,1
    1438:	8f55                	c.or	a4,a3
    143a:	10000693          	li	a3,256
    143e:	9642                	c.add	a2,a6
    1440:	02058593          	addi	a1,a1,32 # 400020 <__global_pointer$+0x3fcaa8>
    1444:	00054503          	lbu	a0,0(a0)
    1448:	a40ff0ef          	jal	ra,688 <dma_channel_configure>
    144c:	f89ff06f          	j	13d4 <i2cx_slave_addr_hit_handler+0x30>
    1450:	445c                	c.lw	a5,12(s0)
    1452:	0007ac23          	sw	zero,24(a5)
    1456:	4018                	c.lw	a4,0(s0)
    1458:	4b5c                	c.lw	a5,20(a4)
    145a:	0027e793          	ori	a5,a5,2
    145e:	cb5c                	c.sw	a5,20(a4)
    1460:	f75ff06f          	j	13d4 <i2cx_slave_addr_hit_handler+0x30>
    1464:	8082                	c.jr	ra
    1466:	0001                	c.nop

00001468 <i2cx_irq_handler>:
    1468:	1101                	c.addi	sp,-32
    146a:	ce06                	c.swsp	ra,28(sp)
    146c:	cc22                	c.swsp	s0,24(sp)
    146e:	ca26                	c.swsp	s1,20(sp)
    1470:	c84a                	c.swsp	s2,16(sp)
    1472:	c64e                	c.swsp	s3,12(sp)
    1474:	c452                	c.swsp	s4,8(sp)
    1476:	84aa                	c.mv	s1,a0
    1478:	411c                	c.lw	a5,0(a0)
    147a:	4f80                	c.lw	s0,24(a5)
    147c:	02c7a983          	lw	s3,44(a5)
    1480:	0247aa03          	lw	s4,36(a5)
    1484:	1f047713          	andi	a4,s0,496
    1488:	cf98                	c.sw	a4,24(a5)
    148a:	20847713          	andi	a4,s0,520
    148e:	20800793          	li	a5,520
    1492:	06f70563          	beq	a4,a5,14fc <i2cx_irq_handler+0x94>
    1496:	20047913          	andi	s2,s0,512
    149a:	18091d63          	bnez	s2,1634 <i2cx_irq_handler+0x1cc>
    149e:	00847793          	andi	a5,s0,8
    14a2:	1c078163          	beqz	a5,1664 <i2cx_irq_handler+0x1fc>
    14a6:	0049f793          	andi	a5,s3,4
    14aa:	e7a9                	c.bnez	a5,14f4 <i2cx_irq_handler+0x8c>
    14ac:	411c                	c.lw	a5,0(a0)
    14ae:	4721                	c.li	a4,8
    14b0:	cf98                	c.sw	a4,24(a5)
    14b2:	100a7713          	andi	a4,s4,256
    14b6:	c709                	c.beqz	a4,14c0 <i2cx_irq_handler+0x58>
    14b8:	411c                	c.lw	a5,0(a0)
    14ba:	20000693          	li	a3,512
    14be:	cf94                	c.sw	a3,24(a5)
    14c0:	44d4                	c.lw	a3,12(s1)
    14c2:	1446c783          	lbu	a5,324(a3) # c0028144 <boot_loader+0x40028144>
    14c6:	9bbd                	c.andi	a5,-17
    14c8:	14f68223          	sb	a5,324(a3)
    14cc:	16071e63          	bnez	a4,1648 <i2cx_irq_handler+0x1e0>
    14d0:	44dc                	c.lw	a5,12(s1)
    14d2:	1547a023          	sw	s4,320(a5)
    14d6:	44d8                	c.lw	a4,12(s1)
    14d8:	14474783          	lbu	a5,324(a4)
    14dc:	9bcd                	c.andi	a5,-13
    14de:	0047e793          	ori	a5,a5,4
    14e2:	14f70223          	sb	a5,324(a4)
    14e6:	44dc                	c.lw	a5,12(s1)
    14e8:	04000713          	li	a4,64
    14ec:	c798                	c.sw	a4,8(a5)
    14ee:	4921                	c.li	s2,8
    14f0:	8526                	c.mv	a0,s1
    14f2:	3d4d                	c.jal	13a4 <i2cx_slave_addr_hit_handler>
    14f4:	00296913          	ori	s2,s2,2
    14f8:	0680006f          	j	1560 <i2cx_irq_handler+0xf8>
    14fc:	455c                	c.lw	a5,12(a0)
    14fe:	1447a783          	lw	a5,324(a5)
    1502:	8389                	c.srli	a5,0x2
    1504:	8b8d                	c.andi	a5,3
    1506:	10079d63          	bnez	a5,1620 <i2cx_irq_handler+0x1b8>
    150a:	0049f793          	andi	a5,s3,4
    150e:	10079763          	bnez	a5,161c <i2cx_irq_handler+0x1b4>
    1512:	411c                	c.lw	a5,0(a0)
    1514:	4721                	c.li	a4,8
    1516:	cf98                	c.sw	a4,24(a5)
    1518:	100a7713          	andi	a4,s4,256
    151c:	c711                	c.beqz	a4,1528 <i2cx_irq_handler+0xc0>
    151e:	411c                	c.lw	a5,0(a0)
    1520:	20000693          	li	a3,512
    1524:	00d7ac23          	sw	a3,24(a5)
    1528:	44d4                	c.lw	a3,12(s1)
    152a:	1446c783          	lbu	a5,324(a3)
    152e:	9bbd                	c.andi	a5,-17
    1530:	14f68223          	sb	a5,324(a3)
    1534:	e771                	c.bnez	a4,1600 <i2cx_irq_handler+0x198>
    1536:	44dc                	c.lw	a5,12(s1)
    1538:	1547a023          	sw	s4,320(a5)
    153c:	44d8                	c.lw	a4,12(s1)
    153e:	14474783          	lbu	a5,324(a4)
    1542:	9bcd                	c.andi	a5,-13
    1544:	0047e793          	ori	a5,a5,4
    1548:	14f70223          	sb	a5,324(a4)
    154c:	44dc                	c.lw	a5,12(s1)
    154e:	04000713          	li	a4,64
    1552:	c798                	c.sw	a4,8(a5)
    1554:	00800913          	li	s2,8
    1558:	8526                	c.mv	a0,s1
    155a:	35a9                	c.jal	13a4 <i2cx_slave_addr_hit_handler>
    155c:	00296913          	ori	s2,s2,2
    1560:	00147793          	andi	a5,s0,1
    1564:	10079263          	bnez	a5,1668 <i2cx_irq_handler+0x200>
    1568:	00247793          	andi	a5,s0,2
    156c:	10079263          	bnez	a5,1670 <i2cx_irq_handler+0x208>
    1570:	40047793          	andi	a5,s0,1024
    1574:	e385                	c.bnez	a5,1594 <i2cx_irq_handler+0x12c>
    1576:	0049f793          	andi	a5,s3,4
    157a:	ef89                	c.bnez	a5,1594 <i2cx_irq_handler+0x12c>
    157c:	10047793          	andi	a5,s0,256
    1580:	eb91                	c.bnez	a5,1594 <i2cx_irq_handler+0x12c>
    1582:	08047793          	andi	a5,s0,128
    1586:	c799                	c.beqz	a5,1594 <i2cx_irq_handler+0x12c>
    1588:	01096913          	ori	s2,s2,16
    158c:	44dc                	c.lw	a5,12(s1)
    158e:	4705                	c.li	a4,1
    1590:	02e78023          	sb	a4,32(a5)
    1594:	6785                	c.lui	a5,0x1
    1596:	07a1                	c.addi	a5,8
    1598:	00f47733          	and	a4,s0,a5
    159c:	0ef70063          	beq	a4,a5,167c <i2cx_irq_handler+0x214>
    15a0:	01047793          	andi	a5,s0,16
    15a4:	cf91                	c.beqz	a5,15c0 <i2cx_irq_handler+0x158>
    15a6:	0049f793          	andi	a5,s3,4
    15aa:	cb99                	c.beqz	a5,15c0 <i2cx_irq_handler+0x158>
    15ac:	00c4a703          	lw	a4,12(s1)
    15b0:	14474783          	lbu	a5,324(a4)
    15b4:	0207e793          	ori	a5,a5,32
    15b8:	14f70223          	sb	a5,324(a4)
    15bc:	04096913          	ori	s2,s2,64
    15c0:	08047413          	andi	s0,s0,128
    15c4:	c015                	c.beqz	s0,15e8 <i2cx_irq_handler+0x180>
    15c6:	0049f993          	andi	s3,s3,4
    15ca:	00099f63          	bnez	s3,15e8 <i2cx_irq_handler+0x180>
    15ce:	4098                	c.lw	a4,0(s1)
    15d0:	571c                	c.lw	a5,40(a4)
    15d2:	9be1                	c.andi	a5,-8
    15d4:	0047e793          	ori	a5,a5,4
    15d8:	d71c                	c.sw	a5,40(a4)
    15da:	44d8                	c.lw	a4,12(s1)
    15dc:	14474783          	lbu	a5,324(a4)
    15e0:	ffe7f793          	andi	a5,a5,-2
    15e4:	14f70223          	sb	a5,324(a4)
    15e8:	85a6                	c.mv	a1,s1
    15ea:	854a                	c.mv	a0,s2
    15ec:	3485                	c.jal	104c <i2cx_signalevent>
    15ee:	40f2                	c.lwsp	ra,28(sp)
    15f0:	4462                	c.lwsp	s0,24(sp)
    15f2:	44d2                	c.lwsp	s1,20(sp)
    15f4:	4942                	c.lwsp	s2,16(sp)
    15f6:	49b2                	c.lwsp	s3,12(sp)
    15f8:	4a22                	c.lwsp	s4,8(sp)
    15fa:	6105                	c.addi16sp	sp,32
    15fc:	00008067          	ret
    1600:	44d8                	c.lw	a4,12(s1)
    1602:	14474783          	lbu	a5,324(a4)
    1606:	9bcd                	c.andi	a5,-13
    1608:	0087e793          	ori	a5,a5,8
    160c:	14f70223          	sb	a5,324(a4)
    1610:	44dc                	c.lw	a5,12(s1)
    1612:	02000713          	li	a4,32
    1616:	c798                	c.sw	a4,8(a5)
    1618:	4911                	c.li	s2,4
    161a:	bf3d                	c.j	1558 <i2cx_irq_handler+0xf0>
    161c:	4901                	c.li	s2,0
    161e:	bf3d                	c.j	155c <i2cx_irq_handler+0xf4>
    1620:	411c                	c.lw	a5,0(a0)
    1622:	20000713          	li	a4,512
    1626:	cf98                	c.sw	a4,24(a5)
    1628:	455c                	c.lw	a5,12(a0)
    162a:	1547a023          	sw	s4,320(a5) # 1140 <i2cx_slave_fifo_read+0x18>
    162e:	368d                	c.jal	1190 <i2c_cmpl_handler>
    1630:	4905                	c.li	s2,1
    1632:	b73d                	c.j	1560 <i2cx_irq_handler+0xf8>
    1634:	411c                	c.lw	a5,0(a0)
    1636:	20000713          	li	a4,512
    163a:	cf98                	c.sw	a4,24(a5)
    163c:	455c                	c.lw	a5,12(a0)
    163e:	1547a023          	sw	s4,320(a5)
    1642:	36b9                	c.jal	1190 <i2c_cmpl_handler>
    1644:	4905                	c.li	s2,1
    1646:	bf29                	c.j	1560 <i2cx_irq_handler+0xf8>
    1648:	44d8                	c.lw	a4,12(s1)
    164a:	14474783          	lbu	a5,324(a4)
    164e:	9bcd                	c.andi	a5,-13
    1650:	0087e793          	ori	a5,a5,8
    1654:	14f70223          	sb	a5,324(a4)
    1658:	44dc                	c.lw	a5,12(s1)
    165a:	02000713          	li	a4,32
    165e:	c798                	c.sw	a4,8(a5)
    1660:	4911                	c.li	s2,4
    1662:	b579                	c.j	14f0 <i2cx_irq_handler+0x88>
    1664:	4909                	c.li	s2,2
    1666:	bded                	c.j	1560 <i2cx_irq_handler+0xf8>
    1668:	8526                	c.mv	a0,s1
    166a:	34a9                	c.jal	10b4 <i2cx_fifo_empty_handler>
    166c:	efdff06f          	j	1568 <i2cx_irq_handler+0x100>
    1670:	44dc                	c.lw	a5,12(s1)
    1672:	1547a023          	sw	s4,320(a5)
    1676:	8526                	c.mv	a0,s1
    1678:	39e5                	c.jal	1370 <i2cx_fifo_full_handler>
    167a:	bddd                	c.j	1570 <i2cx_irq_handler+0x108>
    167c:	0049f793          	andi	a5,s3,4
    1680:	f20790e3          	bnez	a5,15a0 <i2cx_irq_handler+0x138>
    1684:	44d8                	c.lw	a4,12(s1)
    1686:	14474783          	lbu	a5,324(a4)
    168a:	0107e793          	ori	a5,a5,16
    168e:	14f70223          	sb	a5,324(a4)
    1692:	02096913          	ori	s2,s2,32
    1696:	44d8                	c.lw	a4,12(s1)
    1698:	14474783          	lbu	a5,324(a4)
    169c:	9bcd                	c.andi	a5,-13
    169e:	0047e793          	ori	a5,a5,4
    16a2:	14f70223          	sb	a5,324(a4)
    16a6:	bded                	c.j	15a0 <i2cx_irq_handler+0x138>

000016a8 <i2c_irq_handler>:
    16a8:	1141                	c.addi	sp,-16
    16aa:	c606                	c.swsp	ra,12(sp)
    16ac:	dc0f950b          	addigp	a0,-2624 # 2b38 <I2C_Resources>
    16b0:	3b65                	c.jal	1468 <i2cx_irq_handler>
    16b2:	40b2                	c.lwsp	ra,12(sp)
    16b4:	0141                	c.addi	sp,16
    16b6:	8082                	c.jr	ra

000016b8 <rtc_signal_event>:
    16b8:	a3ffa7ab          	lwgp	a5,-1476 # 2fb4 <g_rRtc_Info>
    16bc:	cb81                	c.beqz	a5,16cc <rtc_signal_event+0x14>
    16be:	1141                	c.addi	sp,-16
    16c0:	c606                	c.swsp	ra,12(sp)
    16c2:	9782                	c.jalr	a5
    16c4:	40b2                	c.lwsp	ra,12(sp)
    16c6:	0141                	c.addi	sp,16
    16c8:	00008067          	ret
    16cc:	8082                	c.jr	ra
    16ce:	0001                	c.nop

000016d0 <rtc_period_irq_handler>:
    16d0:	1141                	c.addi	sp,-16
    16d2:	c606                	c.swsp	ra,12(sp)
    16d4:	f0600737          	lui	a4,0xf0600
    16d8:	4f5c                	c.lw	a5,28(a4)
    16da:	0f87f693          	andi	a3,a5,248
    16de:	cf54                	c.sw	a3,28(a4)
    16e0:	0087f513          	andi	a0,a5,8
    16e4:	c111                	c.beqz	a0,16e8 <rtc_period_irq_handler+0x18>
    16e6:	4509                	c.li	a0,2
    16e8:	0107f713          	andi	a4,a5,16
    16ec:	00070463          	beqz	a4,16f4 <rtc_period_irq_handler+0x24>
    16f0:	00456513          	ori	a0,a0,4
    16f4:	0207f713          	andi	a4,a5,32
    16f8:	00070463          	beqz	a4,1700 <rtc_period_irq_handler+0x30>
    16fc:	00856513          	ori	a0,a0,8
    1700:	0407f713          	andi	a4,a5,64
    1704:	00070463          	beqz	a4,170c <rtc_period_irq_handler+0x3c>
    1708:	01056513          	ori	a0,a0,16
    170c:	0807f793          	andi	a5,a5,128
    1710:	00078463          	beqz	a5,1718 <rtc_period_irq_handler+0x48>
    1714:	02056513          	ori	a0,a0,32
    1718:	3745                	c.jal	16b8 <rtc_signal_event>
    171a:	40b2                	c.lwsp	ra,12(sp)
    171c:	0141                	c.addi	sp,16
    171e:	8082                	c.jr	ra
    1720:	0001                	c.nop
    1722:	0001                	c.nop

00001724 <rtc_alarm_irq_handler>:
    1724:	1141                	c.addi	sp,-16
    1726:	c606                	c.swsp	ra,12(sp)
    1728:	f06007b7          	lui	a5,0xf0600
    172c:	4fc8                	c.lw	a0,28(a5)
    172e:	8911                	c.andi	a0,4
    1730:	cfc8                	c.sw	a0,28(a5)
    1732:	c119                	c.beqz	a0,1738 <rtc_alarm_irq_handler+0x14>
    1734:	00100513          	li	a0,1
    1738:	3741                	c.jal	16b8 <rtc_signal_event>
    173a:	40b2                	c.lwsp	ra,12(sp)
    173c:	0141                	c.addi	sp,16
    173e:	8082                	c.jr	ra

00001740 <spix_irq_handler>:
    1740:	1141                	c.addi	sp,-16
    1742:	c606                	c.swsp	ra,12(sp)
    1744:	c422                	c.swsp	s0,8(sp)
    1746:	c226                	c.swsp	s1,4(sp)
    1748:	c04a                	c.swsp	s2,0(sp)
    174a:	842a                	c.mv	s0,a0
    174c:	415c                	c.lw	a5,4(a0)
    174e:	5fc4                	c.lw	s1,60(a5)
    1750:	0034f913          	andi	s2,s1,3
    1754:	00090863          	beqz	s2,1764 <spix_irq_handler+0x24>
    1758:	495c                	c.lw	a5,20(a0)
    175a:	4705                	c.li	a4,1
    175c:	00e782a3          	sb	a4,5(a5) # f0600005 <boot_loader+0x70600005>
    1760:	00200913          	li	s2,2
    1764:	0084f793          	andi	a5,s1,8
    1768:	0c079463          	bnez	a5,1830 <spix_irq_handler+0xf0>
    176c:	0044f793          	andi	a5,s1,4
    1770:	16078e63          	beqz	a5,18ec <spix_irq_handler+0x1ac>
    1774:	4058                	c.lw	a4,4(s0)
    1776:	431c                	c.lw	a5,0(a4)
    1778:	0ff7f793          	andi	a5,a5,255
    177c:	04600693          	li	a3,70
    1780:	0af6fa63          	bgeu	a3,a5,1834 <spix_irq_handler+0xf4>
    1784:	5b54                	c.lw	a3,52(a4)
    1786:	82a1                	c.srli	a3,0x8
    1788:	02f6f693          	andi	a3,a3,47
    178c:	5b5c                	c.lw	a5,52(a4)
    178e:	83c9                	c.srli	a5,0x12
    1790:	0c07f793          	andi	a5,a5,192
    1794:	8edd                	c.or	a3,a5
    1796:	a239                	c.j	18a4 <spix_irq_handler+0x164>
    1798:	47c1                	c.li	a5,16
    179a:	08c7f163          	bgeu	a5,a2,181c <spix_irq_handler+0xdc>
    179e:	4601                	c.li	a2,0
    17a0:	00000693          	li	a3,0
    17a4:	478d                	c.li	a5,3
    17a6:	02d7ef63          	bltu	a5,a3,17e4 <spix_irq_handler+0xa4>
    17aa:	4848                	c.lw	a0,20(s0)
    17ac:	491c                	c.lw	a5,16(a0)
    17ae:	0007c583          	lbu	a1,0(a5)
    17b2:	00369813          	slli	a6,a3,0x3
    17b6:	010595b3          	sll	a1,a1,a6
    17ba:	8e4d                	c.or	a2,a1
    17bc:	0785                	c.addi	a5,1
    17be:	c91c                	c.sw	a5,16(a0)
    17c0:	0685                	c.addi	a3,1
    17c2:	b7cd                	c.j	17a4 <spix_irq_handler+0x64>
    17c4:	4848                	c.lw	a0,20(s0)
    17c6:	4914                	c.lw	a3,16(a0)
    17c8:	0006c583          	lbu	a1,0(a3)
    17cc:	00379813          	slli	a6,a5,0x3
    17d0:	010595b3          	sll	a1,a1,a6
    17d4:	8e4d                	c.or	a2,a1
    17d6:	0685                	c.addi	a3,1
    17d8:	c914                	c.sw	a3,16(a0)
    17da:	0785                	c.addi	a5,1
    17dc:	00100693          	li	a3,1
    17e0:	fef6f2e3          	bgeu	a3,a5,17c4 <spix_irq_handler+0x84>
    17e4:	405c                	c.lw	a5,4(s0)
    17e6:	d7d0                	c.sw	a2,44(a5)
    17e8:	4854                	c.lw	a3,20(s0)
    17ea:	4edc                	c.lw	a5,28(a3)
    17ec:	0785                	c.addi	a5,1
    17ee:	cedc                	c.sw	a5,28(a3)
    17f0:	00170713          	addi	a4,a4,1 # f0600001 <boot_loader+0x70600001>
    17f4:	485c                	c.lw	a5,20(s0)
    17f6:	0207c683          	lbu	a3,32(a5)
    17fa:	f6d779e3          	bgeu	a4,a3,176c <spix_irq_handler+0x2c>
    17fe:	4b94                	c.lw	a3,16(a5)
    1800:	4bd0                	c.lw	a2,20(a5)
    1802:	02c6f163          	bgeu	a3,a2,1824 <spix_irq_handler+0xe4>
    1806:	0357c603          	lbu	a2,53(a5)
    180a:	45a1                	c.li	a1,8
    180c:	f8c5e6e3          	bltu	a1,a2,1798 <spix_irq_handler+0x58>
    1810:	0006c603          	lbu	a2,0(a3)
    1814:	0685                	c.addi	a3,1
    1816:	cb94                	c.sw	a3,16(a5)
    1818:	fcdff06f          	j	17e4 <spix_irq_handler+0xa4>
    181c:	4601                	c.li	a2,0
    181e:	4781                	c.li	a5,0
    1820:	fbdff06f          	j	17dc <spix_irq_handler+0x9c>
    1824:	4054                	c.lw	a3,4(s0)
    1826:	5e9c                	c.lw	a5,56(a3)
    1828:	9bdd                	c.andi	a5,-9
    182a:	de9c                	c.sw	a5,56(a3)
    182c:	fc5ff06f          	j	17f0 <spix_irq_handler+0xb0>
    1830:	4701                	c.li	a4,0
    1832:	b7c9                	c.j	17f4 <spix_irq_handler+0xb4>
    1834:	5b54                	c.lw	a3,52(a4)
    1836:	82a1                	c.srli	a3,0x8
    1838:	8afd                	c.andi	a3,31
    183a:	a0ad                	c.j	18a4 <spix_irq_handler+0x164>
    183c:	4741                	c.li	a4,16
    183e:	00f77563          	bgeu	a4,a5,1848 <spix_irq_handler+0x108>
    1842:	4781                	c.li	a5,0
    1844:	0480006f          	j	188c <spix_irq_handler+0x14c>
    1848:	00000793          	li	a5,0
    184c:	4705                	c.li	a4,1
    184e:	04f76363          	bltu	a4,a5,1894 <spix_irq_handler+0x154>
    1852:	00379713          	slli	a4,a5,0x3
    1856:	00e65733          	srl	a4,a2,a4
    185a:	484c                	c.lw	a1,20(s0)
    185c:	45cc                	c.lw	a1,12(a1)
    185e:	00e58023          	sb	a4,0(a1)
    1862:	484c                	c.lw	a1,20(s0)
    1864:	45d8                	c.lw	a4,12(a1)
    1866:	0705                	c.addi	a4,1
    1868:	c5d8                	c.sw	a4,12(a1)
    186a:	0785                	c.addi	a5,1
    186c:	fe1ff06f          	j	184c <spix_irq_handler+0x10c>
    1870:	00379713          	slli	a4,a5,0x3
    1874:	00e65733          	srl	a4,a2,a4
    1878:	484c                	c.lw	a1,20(s0)
    187a:	45cc                	c.lw	a1,12(a1)
    187c:	00e58023          	sb	a4,0(a1)
    1880:	484c                	c.lw	a1,20(s0)
    1882:	45d8                	c.lw	a4,12(a1)
    1884:	0705                	c.addi	a4,1
    1886:	c5d8                	c.sw	a4,12(a1)
    1888:	00178793          	addi	a5,a5,1
    188c:	00300713          	li	a4,3
    1890:	fef770e3          	bgeu	a4,a5,1870 <spix_irq_handler+0x130>
    1894:	485c                	c.lw	a5,20(s0)
    1896:	02c7c603          	lbu	a2,44(a5)
    189a:	4705                	c.li	a4,1
    189c:	02e60a63          	beq	a2,a4,18d0 <spix_irq_handler+0x190>
    18a0:	fff68693          	addi	a3,a3,-1
    18a4:	c6a1                	c.beqz	a3,18ec <spix_irq_handler+0x1ac>
    18a6:	405c                	c.lw	a5,4(s0)
    18a8:	57d0                	c.lw	a2,44(a5)
    18aa:	4858                	c.lw	a4,20(s0)
    18ac:	4f1c                	c.lw	a5,24(a4)
    18ae:	0785                	c.addi	a5,1
    18b0:	cf1c                	c.sw	a5,24(a4)
    18b2:	4858                	c.lw	a4,20(s0)
    18b4:	03574783          	lbu	a5,53(a4)
    18b8:	45a1                	c.li	a1,8
    18ba:	f8f5e1e3          	bltu	a1,a5,183c <spix_irq_handler+0xfc>
    18be:	475c                	c.lw	a5,12(a4)
    18c0:	00c78023          	sb	a2,0(a5)
    18c4:	4858                	c.lw	a4,20(s0)
    18c6:	475c                	c.lw	a5,12(a4)
    18c8:	0785                	c.addi	a5,1
    18ca:	c75c                	c.sw	a5,12(a4)
    18cc:	fc9ff06f          	j	1894 <spix_irq_handler+0x154>
    18d0:	4f90                	c.lw	a2,24(a5)
    18d2:	03c7c703          	lbu	a4,60(a5)
    18d6:	fce615e3          	bne	a2,a4,18a0 <spix_irq_handler+0x160>
    18da:	02078623          	sb	zero,44(a5)
    18de:	485c                	c.lw	a5,20(s0)
    18e0:	5b98                	c.lw	a4,48(a5)
    18e2:	c7d8                	c.sw	a4,12(a5)
    18e4:	485c                	c.lw	a5,20(s0)
    18e6:	0007ac23          	sw	zero,24(a5)
    18ea:	bf5d                	c.j	18a0 <spix_irq_handler+0x160>
    18ec:	0104f793          	andi	a5,s1,16
    18f0:	cbb1                	c.beqz	a5,1944 <spix_irq_handler+0x204>
    18f2:	405c                	c.lw	a5,4(s0)
    18f4:	0207ac23          	sw	zero,56(a5)
    18f8:	445c                	c.lw	a5,12(s0)
    18fa:	c38d                	c.beqz	a5,191c <spix_irq_handler+0x1dc>
    18fc:	4858                	c.lw	a4,20(s0)
    18fe:	00874683          	lbu	a3,8(a4)
    1902:	c689                	c.beqz	a3,190c <spix_irq_handler+0x1cc>
    1904:	00200613          	li	a2,2
    1908:	00c69a63          	bne	a3,a2,191c <spix_irq_handler+0x1dc>
    190c:	02174703          	lbu	a4,33(a4)
    1910:	04070c63          	beqz	a4,1968 <spix_irq_handler+0x228>
    1914:	01442783          	lw	a5,20(s0)
    1918:	020780a3          	sb	zero,33(a5)
    191c:	4818                	c.lw	a4,16(s0)
    191e:	cb19                	c.beqz	a4,1934 <spix_irq_handler+0x1f4>
    1920:	4854                	c.lw	a3,20(s0)
    1922:	0086c783          	lbu	a5,8(a3)
    1926:	17fd                	c.addi	a5,-1
    1928:	0ff7f793          	andi	a5,a5,255
    192c:	00100613          	li	a2,1
    1930:	04f67263          	bgeu	a2,a5,1974 <spix_irq_handler+0x234>
    1934:	405c                	c.lw	a5,4(s0)
    1936:	4719                	c.li	a4,6
    1938:	db98                	c.sw	a4,48(a5)
    193a:	485c                	c.lw	a5,20(s0)
    193c:	00078223          	sb	zero,4(a5)
    1940:	00196913          	ori	s2,s2,1
    1944:	405c                	c.lw	a5,4(s0)
    1946:	dfc4                	c.sw	s1,60(a5)
    1948:	405c                	c.lw	a5,4(s0)
    194a:	5fdc                	c.lw	a5,60(a5)
    194c:	485c                	c.lw	a5,20(s0)
    194e:	439c                	c.lw	a5,0(a5)
    1950:	c791                	c.beqz	a5,195c <spix_irq_handler+0x21c>
    1952:	00090563          	beqz	s2,195c <spix_irq_handler+0x21c>
    1956:	854a                	c.mv	a0,s2
    1958:	000780e7          	jalr	a5
    195c:	40b2                	c.lwsp	ra,12(sp)
    195e:	4422                	c.lwsp	s0,8(sp)
    1960:	4492                	c.lwsp	s1,4(sp)
    1962:	4902                	c.lwsp	s2,0(sp)
    1964:	0141                	c.addi	sp,16
    1966:	8082                	c.jr	ra
    1968:	0007c503          	lbu	a0,0(a5)
    196c:	ed5fe0ef          	jal	ra,840 <dma_channel_disable>
    1970:	fa5ff06f          	j	1914 <spix_irq_handler+0x1d4>
    1974:	0226c783          	lbu	a5,34(a3)
    1978:	00078663          	beqz	a5,1984 <spix_irq_handler+0x244>
    197c:	485c                	c.lw	a5,20(s0)
    197e:	02078123          	sb	zero,34(a5)
    1982:	bf4d                	c.j	1934 <spix_irq_handler+0x1f4>
    1984:	00074503          	lbu	a0,0(a4)
    1988:	eb9fe0ef          	jal	ra,840 <dma_channel_disable>
    198c:	bfc5                	c.j	197c <spix_irq_handler+0x23c>
    198e:	0001                	c.nop

00001990 <spi_irq_handler>:
    1990:	1141                	c.addi	sp,-16
    1992:	c606                	c.swsp	ra,12(sp)
    1994:	dd0f950b          	addigp	a0,-2608 # 2b48 <spi_resources>
    1998:	3365                	c.jal	1740 <spix_irq_handler>
    199a:	40b2                	c.lwsp	ra,12(sp)
    199c:	0141                	c.addi	sp,16
    199e:	8082                	c.jr	ra

000019a0 <uart_rxline_irq_handler>:
    19a0:	87aa                	c.mv	a5,a0
    19a2:	4158                	c.lw	a4,4(a0)
    19a4:	5b58                	c.lw	a4,52(a4)
    19a6:	00277513          	andi	a0,a4,2
    19aa:	c519                	c.beqz	a0,19b8 <uart_rxline_irq_handler+0x18>
    19ac:	4f94                	c.lw	a3,24(a5)
    19ae:	4605                	c.li	a2,1
    19b0:	00c682a3          	sb	a2,5(a3)
    19b4:	02000513          	li	a0,32
    19b8:	00477693          	andi	a3,a4,4
    19bc:	ca81                	c.beqz	a3,19cc <uart_rxline_irq_handler+0x2c>
    19be:	4f94                	c.lw	a3,24(a5)
    19c0:	00100613          	li	a2,1
    19c4:	00c68423          	sb	a2,8(a3)
    19c8:	20056513          	ori	a0,a0,512
    19cc:	01077693          	andi	a3,a4,16
    19d0:	ca81                	c.beqz	a3,19e0 <uart_rxline_irq_handler+0x40>
    19d2:	4f9c                	c.lw	a5,24(a5)
    19d4:	4705                	c.li	a4,1
    19d6:	00e78323          	sb	a4,6(a5)
    19da:	08056513          	ori	a0,a0,128
    19de:	8082                	c.jr	ra
    19e0:	8b21                	c.andi	a4,8
    19e2:	c719                	c.beqz	a4,19f0 <uart_rxline_irq_handler+0x50>
    19e4:	4f9c                	c.lw	a5,24(a5)
    19e6:	4705                	c.li	a4,1
    19e8:	00e783a3          	sb	a4,7(a5)
    19ec:	10056513          	ori	a0,a0,256
    19f0:	8082                	c.jr	ra
    19f2:	0001                	c.nop

000019f4 <uart_irq_handler>:
    19f4:	1101                	c.addi	sp,-32
    19f6:	ce06                	c.swsp	ra,28(sp)
    19f8:	cc22                	c.swsp	s0,24(sp)
    19fa:	ca26                	c.swsp	s1,20(sp)
    19fc:	c84a                	c.swsp	s2,16(sp)
    19fe:	c64e                	c.swsp	s3,12(sp)
    1a00:	842a                	c.mv	s0,a0
    1a02:	415c                	c.lw	a5,4(a0)
    1a04:	0287a903          	lw	s2,40(a5)
    1a08:	00197493          	andi	s1,s2,1
    1a0c:	14049c63          	bnez	s1,1b64 <uart_irq_handler+0x170>
    1a10:	00f97913          	andi	s2,s2,15
    1a14:	00200793          	li	a5,2
    1a18:	0af90c63          	beq	s2,a5,1ad0 <uart_irq_handler+0xdc>
    1a1c:	00600793          	li	a5,6
    1a20:	0af90a63          	beq	s2,a5,1ad4 <uart_irq_handler+0xe0>
    1a24:	4791                	c.li	a5,4
    1a26:	0af90b63          	beq	s2,a5,1adc <uart_irq_handler+0xe8>
    1a2a:	47b1                	c.li	a5,12
    1a2c:	0af90863          	beq	s2,a5,1adc <uart_irq_handler+0xe8>
    1a30:	00c00793          	li	a5,12
    1a34:	12f90063          	beq	s2,a5,1b54 <uart_irq_handler+0x160>
    1a38:	12091863          	bnez	s2,1b68 <uart_irq_handler+0x174>
    1a3c:	405c                	c.lw	a5,4(s0)
    1a3e:	5f94                	c.lw	a3,56(a5)
    1a40:	401c                	c.lw	a5,0(s0)
    1a42:	6705                	c.lui	a4,0x1
    1a44:	8f7d                	c.and	a4,a5
    1a46:	c719                	c.beqz	a4,1a54 <uart_irq_handler+0x60>
    1a48:	0016f713          	andi	a4,a3,1
    1a4c:	00070463          	beqz	a4,1a54 <uart_irq_handler+0x60>
    1a50:	4004e493          	ori	s1,s1,1024
    1a54:	6711                	c.lui	a4,0x4
    1a56:	8f7d                	c.and	a4,a5
    1a58:	cb01                	c.beqz	a4,1a68 <uart_irq_handler+0x74>
    1a5a:	0026f713          	andi	a4,a3,2
    1a5e:	c709                	c.beqz	a4,1a68 <uart_irq_handler+0x74>
    1a60:	6705                	c.lui	a4,0x1
    1a62:	80070713          	addi	a4,a4,-2048 # 800 <dma_channel_configure+0x178>
    1a66:	8cd9                	c.or	s1,a4
    1a68:	6741                	c.lui	a4,0x10
    1a6a:	8f7d                	c.and	a4,a5
    1a6c:	c711                	c.beqz	a4,1a78 <uart_irq_handler+0x84>
    1a6e:	0046f713          	andi	a4,a3,4
    1a72:	c319                	c.beqz	a4,1a78 <uart_irq_handler+0x84>
    1a74:	6709                	c.lui	a4,0x2
    1a76:	8cd9                	c.or	s1,a4
    1a78:	6721                	c.lui	a4,0x8
    1a7a:	8ff9                	c.and	a5,a4
    1a7c:	0e078663          	beqz	a5,1b68 <uart_irq_handler+0x174>
    1a80:	8aa1                	c.andi	a3,8
    1a82:	0e068363          	beqz	a3,1b68 <uart_irq_handler+0x174>
    1a86:	6785                	c.lui	a5,0x1
    1a88:	8cdd                	c.or	s1,a5
    1a8a:	a8f9                	c.j	1b68 <uart_irq_handler+0x174>
    1a8c:	4f9c                	c.lw	a5,24(a5)
    1a8e:	4050                	c.lw	a2,4(s0)
    1a90:	97ba                	c.add	a5,a4
    1a92:	0007c783          	lbu	a5,0(a5) # 1000 <gpio_initialize+0x38>
    1a96:	d21c                	c.sw	a5,32(a2)
    1a98:	4c18                	c.lw	a4,24(s0)
    1a9a:	531c                	c.lw	a5,32(a4)
    1a9c:	0785                	c.addi	a5,1
    1a9e:	d31c                	c.sw	a5,32(a4)
    1aa0:	00068793          	mv	a5,a3
    1aa4:	fff78693          	addi	a3,a5,-1
    1aa8:	c791                	c.beqz	a5,1ab4 <uart_irq_handler+0xc0>
    1aaa:	4c1c                	c.lw	a5,24(s0)
    1aac:	4b90                	c.lw	a2,16(a5)
    1aae:	5398                	c.lw	a4,32(a5)
    1ab0:	fce61ee3          	bne	a2,a4,1a8c <uart_irq_handler+0x98>
    1ab4:	4c1c                	c.lw	a5,24(s0)
    1ab6:	4b98                	c.lw	a4,16(a5)
    1ab8:	539c                	c.lw	a5,32(a5)
    1aba:	f6f711e3          	bne	a4,a5,1a1c <uart_irq_handler+0x28>
    1abe:	4058                	c.lw	a4,4(s0)
    1ac0:	535c                	c.lw	a5,36(a4)
    1ac2:	9bf5                	c.andi	a5,-3
    1ac4:	d35c                	c.sw	a5,36(a4)
    1ac6:	4c1c                	c.lw	a5,24(s0)
    1ac8:	020782a3          	sb	zero,37(a5)
    1acc:	4485                	c.li	s1,1
    1ace:	b7b9                	c.j	1a1c <uart_irq_handler+0x28>
    1ad0:	47c1                	c.li	a5,16
    1ad2:	bfc9                	c.j	1aa4 <uart_irq_handler+0xb0>
    1ad4:	8522                	c.mv	a0,s0
    1ad6:	35e9                	c.jal	19a0 <uart_rxline_irq_handler>
    1ad8:	8cc9                	c.or	s1,a0
    1ada:	b7a9                	c.j	1a24 <uart_irq_handler+0x30>
    1adc:	445c                	c.lw	a5,12(s0)
    1ade:	08000713          	li	a4,128
    1ae2:	06e78563          	beq	a5,a4,1b4c <uart_irq_handler+0x158>
    1ae6:	0c000713          	li	a4,192
    1aea:	06e78363          	beq	a5,a4,1b50 <uart_irq_handler+0x15c>
    1aee:	04000713          	li	a4,64
    1af2:	04e78163          	beq	a5,a4,1b34 <uart_irq_handler+0x140>
    1af6:	4705                	c.li	a4,1
    1af8:	405c                	c.lw	a5,4(s0)
    1afa:	5bdc                	c.lw	a5,52(a5)
    1afc:	8b85                	c.andi	a5,1
    1afe:	db8d                	c.beqz	a5,1a30 <uart_irq_handler+0x3c>
    1b00:	fff70993          	addi	s3,a4,-1 # 7fff <__global_pointer$+0x4a87>
    1b04:	d715                	c.beqz	a4,1a30 <uart_irq_handler+0x3c>
    1b06:	8522                	c.mv	a0,s0
    1b08:	3d61                	c.jal	19a0 <uart_rxline_irq_handler>
    1b0a:	8cc9                	c.or	s1,a0
    1b0c:	405c                	c.lw	a5,4(s0)
    1b0e:	5394                	c.lw	a3,32(a5)
    1b10:	4c18                	c.lw	a4,24(s0)
    1b12:	4b5c                	c.lw	a5,20(a4)
    1b14:	4f58                	c.lw	a4,28(a4)
    1b16:	97ba                	c.add	a5,a4
    1b18:	00d78023          	sb	a3,0(a5)
    1b1c:	4c18                	c.lw	a4,24(s0)
    1b1e:	4f5c                	c.lw	a5,28(a4)
    1b20:	0785                	c.addi	a5,1
    1b22:	cf5c                	c.sw	a5,28(a4)
    1b24:	4c1c                	c.lw	a5,24(s0)
    1b26:	4fd8                	c.lw	a4,28(a5)
    1b28:	47dc                	c.lw	a5,12(a5)
    1b2a:	00f70763          	beq	a4,a5,1b38 <uart_irq_handler+0x144>
    1b2e:	874e                	c.mv	a4,s3
    1b30:	fc9ff06f          	j	1af8 <uart_irq_handler+0x104>
    1b34:	470d                	c.li	a4,3
    1b36:	b7c9                	c.j	1af8 <uart_irq_handler+0x104>
    1b38:	4058                	c.lw	a4,4(s0)
    1b3a:	535c                	c.lw	a5,36(a4)
    1b3c:	9bf9                	c.andi	a5,-2
    1b3e:	d35c                	c.sw	a5,36(a4)
    1b40:	4c1c                	c.lw	a5,24(s0)
    1b42:	00078223          	sb	zero,4(a5)
    1b46:	0024e493          	ori	s1,s1,2
    1b4a:	b5dd                	c.j	1a30 <uart_irq_handler+0x3c>
    1b4c:	471d                	c.li	a4,7
    1b4e:	b76d                	c.j	1af8 <uart_irq_handler+0x104>
    1b50:	4735                	c.li	a4,13
    1b52:	b75d                	c.j	1af8 <uart_irq_handler+0x104>
    1b54:	4c1c                	c.lw	a5,24(s0)
    1b56:	4fd8                	c.lw	a4,28(a5)
    1b58:	47dc                	c.lw	a5,12(a5)
    1b5a:	ecf70fe3          	beq	a4,a5,1a38 <uart_irq_handler+0x44>
    1b5e:	0404e493          	ori	s1,s1,64
    1b62:	bdd9                	c.j	1a38 <uart_irq_handler+0x44>
    1b64:	00000493          	li	s1,0
    1b68:	4c1c                	c.lw	a5,24(s0)
    1b6a:	439c                	c.lw	a5,0(a5)
    1b6c:	c781                	c.beqz	a5,1b74 <uart_irq_handler+0x180>
    1b6e:	c099                	c.beqz	s1,1b74 <uart_irq_handler+0x180>
    1b70:	8526                	c.mv	a0,s1
    1b72:	9782                	c.jalr	a5
    1b74:	40f2                	c.lwsp	ra,28(sp)
    1b76:	4462                	c.lwsp	s0,24(sp)
    1b78:	44d2                	c.lwsp	s1,20(sp)
    1b7a:	4942                	c.lwsp	s2,16(sp)
    1b7c:	49b2                	c.lwsp	s3,12(sp)
    1b7e:	6105                	c.addi16sp	sp,32
    1b80:	8082                	c.jr	ra
    1b82:	0001                	c.nop

00001b84 <uart_dma_tx_event>:
    1b84:	00100793          	li	a5,1
    1b88:	00f50463          	beq	a0,a5,1b90 <uart_dma_tx_event+0xc>
    1b8c:	00008067          	ret
    1b90:	4d9c                	c.lw	a5,24(a1)
    1b92:	4b98                	c.lw	a4,16(a5)
    1b94:	d398                	c.sw	a4,32(a5)
    1b96:	4d9c                	c.lw	a5,24(a1)
    1b98:	020782a3          	sb	zero,37(a5)
    1b9c:	4d9c                	c.lw	a5,24(a1)
    1b9e:	439c                	c.lw	a5,0(a5)
    1ba0:	d7f5                	c.beqz	a5,1b8c <uart_dma_tx_event+0x8>
    1ba2:	1141                	c.addi	sp,-16
    1ba4:	c606                	c.swsp	ra,12(sp)
    1ba6:	4505                	c.li	a0,1
    1ba8:	9782                	c.jalr	a5
    1baa:	40b2                	c.lwsp	ra,12(sp)
    1bac:	0141                	c.addi	sp,16
    1bae:	8082                	c.jr	ra
    1bb0:	0001                	c.nop
    1bb2:	0001                	c.nop

00001bb4 <uart_dma_rx_event>:
    1bb4:	00100793          	li	a5,1
    1bb8:	00f50463          	beq	a0,a5,1bc0 <uart_dma_rx_event+0xc>
    1bbc:	00008067          	ret
    1bc0:	4d9c                	c.lw	a5,24(a1)
    1bc2:	47d8                	c.lw	a4,12(a5)
    1bc4:	cfd8                	c.sw	a4,28(a5)
    1bc6:	4d9c                	c.lw	a5,24(a1)
    1bc8:	00078223          	sb	zero,4(a5)
    1bcc:	4d9c                	c.lw	a5,24(a1)
    1bce:	439c                	c.lw	a5,0(a5)
    1bd0:	d7f5                	c.beqz	a5,1bbc <uart_dma_rx_event+0x8>
    1bd2:	1141                	c.addi	sp,-16
    1bd4:	c606                	c.swsp	ra,12(sp)
    1bd6:	4509                	c.li	a0,2
    1bd8:	9782                	c.jalr	a5
    1bda:	40b2                	c.lwsp	ra,12(sp)
    1bdc:	0141                	c.addi	sp,16
    1bde:	8082                	c.jr	ra
    1be0:	0001                	c.nop
    1be2:	0001                	c.nop

00001be4 <uart1_dma_tx_event>:
    1be4:	1141                	c.addi	sp,-16
    1be6:	c606                	c.swsp	ra,12(sp)
    1be8:	e04f958b          	addigp	a1,-2556 # 2b7c <uart1_resources>
    1bec:	3f61                	c.jal	1b84 <uart_dma_tx_event>
    1bee:	40b2                	c.lwsp	ra,12(sp)
    1bf0:	0141                	c.addi	sp,16
    1bf2:	8082                	c.jr	ra

00001bf4 <uart1_dma_rx_event>:
    1bf4:	1141                	c.addi	sp,-16
    1bf6:	c606                	c.swsp	ra,12(sp)
    1bf8:	e04f958b          	addigp	a1,-2556 # 2b7c <uart1_resources>
    1bfc:	3f65                	c.jal	1bb4 <uart_dma_rx_event>
    1bfe:	40b2                	c.lwsp	ra,12(sp)
    1c00:	0141                	c.addi	sp,16
    1c02:	8082                	c.jr	ra

00001c04 <uart2_dma_tx_event>:
    1c04:	1141                	c.addi	sp,-16
    1c06:	c606                	c.swsp	ra,12(sp)
    1c08:	de8f958b          	addigp	a1,-2584 # 2b60 <uart2_resources>
    1c0c:	3fa5                	c.jal	1b84 <uart_dma_tx_event>
    1c0e:	40b2                	c.lwsp	ra,12(sp)
    1c10:	0141                	c.addi	sp,16
    1c12:	8082                	c.jr	ra

00001c14 <uart2_dma_rx_event>:
    1c14:	1141                	c.addi	sp,-16
    1c16:	c606                	c.swsp	ra,12(sp)
    1c18:	de8f958b          	addigp	a1,-2584 # 2b60 <uart2_resources>
    1c1c:	3f61                	c.jal	1bb4 <uart_dma_rx_event>
    1c1e:	40b2                	c.lwsp	ra,12(sp)
    1c20:	0141                	c.addi	sp,16
    1c22:	8082                	c.jr	ra

00001c24 <uart1_irq_handler>:
    1c24:	1141                	c.addi	sp,-16
    1c26:	c606                	c.swsp	ra,12(sp)
    1c28:	e04f950b          	addigp	a0,-2556 # 2b7c <uart1_resources>
    1c2c:	33e1                	c.jal	19f4 <uart_irq_handler>
    1c2e:	40b2                	c.lwsp	ra,12(sp)
    1c30:	0141                	c.addi	sp,16
    1c32:	8082                	c.jr	ra

00001c34 <uart2_irq_handler>:
    1c34:	1141                	c.addi	sp,-16
    1c36:	c606                	c.swsp	ra,12(sp)
    1c38:	de8f950b          	addigp	a0,-2584 # 2b60 <uart2_resources>
    1c3c:	3b65                	c.jal	19f4 <uart_irq_handler>
    1c3e:	40b2                	c.lwsp	ra,12(sp)
    1c40:	0141                	c.addi	sp,16
    1c42:	8082                	c.jr	ra

00001c44 <wdt_get_status>:
    1c44:	4501                	c.li	a0,0
    1c46:	f05007b7          	lui	a5,0xf0500
    1c4a:	4fdc                	c.lw	a5,28(a5)
    1c4c:	8b85                	c.andi	a5,1
    1c4e:	c399                	c.beqz	a5,1c54 <wdt_get_status+0x10>
    1c50:	00156513          	ori	a0,a0,1
    1c54:	8082                	c.jr	ra
    1c56:	0001                	c.nop

00001c58 <nmi_handler>:
    1c58:	1141                	c.addi	sp,-16
    1c5a:	c606                	c.swsp	ra,12(sp)
    1c5c:	37e5                	c.jal	1c44 <wdt_get_status>
    1c5e:	00157793          	andi	a5,a0,1
    1c62:	c789                	c.beqz	a5,1c6c <nmi_handler+0x14>
    1c64:	83ffa7ab          	lwgp	a5,-1988 # 2db4 <wdt_info>
    1c68:	4501                	c.li	a0,0
    1c6a:	9782                	c.jalr	a5
    1c6c:	a001                	c.j	1c6c <nmi_handler+0x14>
    1c6e:	0001                	c.nop

00001c70 <get_core_freq>:
    1c70:	32000513          	li	a0,800
    1c74:	8082                	c.jr	ra
    1c76:	0001                	c.nop

00001c78 <rdmcycle>:
    1c78:	b80025f3          	csrr	a1,mcycleh
    1c7c:	b0002573          	csrr	a0,mcycle
    1c80:	b80027f3          	csrr	a5,mcycleh
    1c84:	feb79ae3          	bne	a5,a1,1c78 <rdmcycle>
    1c88:	8082                	c.jr	ra
    1c8a:	0001                	c.nop

00001c8c <time>:
    1c8c:	1101                	c.addi	sp,-32
    1c8e:	ce06                	c.swsp	ra,28(sp)
    1c90:	cc22                	c.swsp	s0,24(sp)
    1c92:	ca26                	c.swsp	s1,20(sp)
    1c94:	a422                	c.fsdsp	fs0,8(sp)
    1c96:	37cd                	c.jal	1c78 <rdmcycle>
    1c98:	84aa                	c.mv	s1,a0
    1c9a:	842e                	c.mv	s0,a1
    1c9c:	3fd1                	c.jal	1c70 <get_core_freq>
    1c9e:	d0157453          	fcvt.s.wu	fs0,a0
    1ca2:	8526                	c.mv	a0,s1
    1ca4:	85a2                	c.mv	a1,s0
    1ca6:	229d                	c.jal	1e0c <__floatundisf>
    1ca8:	18857553          	fdiv.s	fa0,fa0,fs0
    1cac:	c0051553          	fcvt.w.s	a0,fa0,rtz
    1cb0:	40f2                	c.lwsp	ra,28(sp)
    1cb2:	4462                	c.lwsp	s0,24(sp)
    1cb4:	44d2                	c.lwsp	s1,20(sp)
    1cb6:	2422                	c.fldsp	fs0,8(sp)
    1cb8:	6105                	c.addi16sp	sp,32
    1cba:	8082                	c.jr	ra

00001cbc <simple_delay_ms>:
    1cbc:	e60007b7          	lui	a5,0xe6000
    1cc0:	43d8                	c.lw	a4,4(a5)
    1cc2:	439c                	c.lw	a5,0(a5)
    1cc4:	863e                	c.mv	a2,a5
    1cc6:	86ba                	c.mv	a3,a4
    1cc8:	000187b7          	lui	a5,0x18
    1ccc:	6a078793          	addi	a5,a5,1696 # 186a0 <__global_pointer$+0x15128>
    1cd0:	a4f5167f          	umar64	a2,a0,a5
    1cd4:	e6000737          	lui	a4,0xe6000
    1cd8:	435c                	c.lw	a5,4(a4)
    1cda:	4318                	c.lw	a4,0(a4)
    1cdc:	fed7ece3          	bltu	a5,a3,1cd4 <simple_delay_ms+0x18>
    1ce0:	00d79463          	bne	a5,a3,1ce8 <simple_delay_ms+0x2c>
    1ce4:	fec768e3          	bltu	a4,a2,1cd4 <simple_delay_ms+0x18>
    1ce8:	8082                	c.jr	ra
    1cea:	0001                	c.nop

00001cec <uart_init>:
    1cec:	f0300737          	lui	a4,0xf0300
    1cf0:	575c                	c.lw	a5,44(a4)
    1cf2:	0807e793          	ori	a5,a5,128
    1cf6:	d75c                	c.sw	a5,44(a4)
    1cf8:	00bec7b7          	lui	a5,0xbec
    1cfc:	c2078793          	addi	a5,a5,-992 # bebc20 <__global_pointer$+0xbe86a8>
    1d00:	97aa                	c.add	a5,a0
    1d02:	078e                	c.slli	a5,0x3
    1d04:	0512                	c.slli	a0,0x4
    1d06:	02a7d533          	divu	a0,a5,a0
    1d0a:	0ff57793          	andi	a5,a0,255
    1d0e:	d31c                	c.sw	a5,32(a4)
    1d10:	8121                	c.srli	a0,0x8
    1d12:	0ff57513          	andi	a0,a0,255
    1d16:	d348                	c.sw	a0,36(a4)
    1d18:	478d                	c.li	a5,3
    1d1a:	d75c                	c.sw	a5,44(a4)
    1d1c:	479d                	c.li	a5,7
    1d1e:	d71c                	c.sw	a5,40(a4)
    1d20:	8082                	c.jr	ra
    1d22:	0001                	c.nop

00001d24 <gpio_callback_led>:
    1d24:	8082                	c.jr	ra
    1d26:	0001                	c.nop

00001d28 <demo_led>:
    1d28:	1101                	c.addi	sp,-32
    1d2a:	ce06                	c.swsp	ra,28(sp)
    1d2c:	cc22                	c.swsp	s0,24(sp)
    1d2e:	ca26                	c.swsp	s1,20(sp)
    1d30:	c84a                	c.swsp	s2,16(sp)
    1d32:	c64e                	c.swsp	s3,12(sp)
    1d34:	6571                	c.lui	a0,0x1c
    1d36:	20050513          	addi	a0,a0,512 # 1c200 <__global_pointer$+0x18c88>
    1d3a:	3f4d                	c.jal	1cec <uart_init>
    1d3c:	e20f950b          	addigp	a0,-2528 # 2b98 <uart1_resources+0x1c>
    1d40:	2acd                	c.jal	1f32 <iprintf>
    1d42:	d98f940b          	addigp	s0,-2664 # 2b10 <Driver_GPIO>
    1d46:	405c                	c.lw	a5,4(s0)
    1d48:	facd950b          	addigp	a0,-6228 # 1d24 <gpio_callback_led>
    1d4c:	9782                	c.jalr	a5
    1d4e:	4c5c                	c.lw	a5,28(s0)
    1d50:	4585                	c.li	a1,1
    1d52:	451d                	c.li	a0,7
    1d54:	000780e7          	jalr	a5
    1d58:	00000413          	li	s0,0
    1d5c:	3f05                	c.jal	1c8c <time>
    1d5e:	892a                	c.mv	s2,a0
    1d60:	1f400513          	li	a0,500
    1d64:	3fa1                	c.jal	1cbc <simple_delay_ms>
    1d66:	87a2                	c.mv	a5,s0
    1d68:	0405                	c.addi	s0,1
    1d6a:	0ff47413          	andi	s0,s0,255
    1d6e:	4485                	c.li	s1,1
    1d70:	00f494b3          	sll	s1,s1,a5
    1d74:	daefa9ab          	lwgp	s3,-2644 # 2b24 <Driver_GPIO+0x14>
    1d78:	4585                	c.li	a1,1
    1d7a:	fff4c513          	not	a0,s1
    1d7e:	9982                	c.jalr	s3
    1d80:	4581                	c.li	a1,0
    1d82:	8526                	c.mv	a0,s1
    1d84:	9982                	c.jalr	s3
    1d86:	3719                	c.jal	1c8c <time>
    1d88:	41250633          	sub	a2,a0,s2
    1d8c:	85a2                	c.mv	a1,s0
    1d8e:	e44f950b          	addigp	a0,-2492 # 2bbc <uart1_resources+0x40>
    1d92:	2245                	c.jal	1f32 <iprintf>
    1d94:	478d                	c.li	a5,3
    1d96:	fcf413e3          	bne	s0,a5,1d5c <demo_led+0x34>
    1d9a:	e58f950b          	addigp	a0,-2472 # 2bd0 <uart1_resources+0x54>
    1d9e:	2a51                	c.jal	1f32 <iprintf>
    1da0:	bf65                	c.j	1d58 <demo_led+0x30>
    1da2:	0001                	c.nop

00001da4 <main>:
    1da4:	1141                	c.addi	sp,-16
    1da6:	c606                	c.swsp	ra,12(sp)
    1da8:	f81ff0ef          	jal	ra,1d28 <demo_led>
    1dac:	a001                	c.j	1dac <main+0x8>
    1dae:	0001                	c.nop

00001db0 <_put_char>:
    1db0:	f03007b7          	lui	a5,0xf0300
    1db4:	5bdc                	c.lw	a5,52(a5)
    1db6:	0207f793          	andi	a5,a5,32
    1dba:	dbfd                	c.beqz	a5,1db0 <_put_char>
    1dbc:	f03007b7          	lui	a5,0xf0300
    1dc0:	d388                	c.sw	a0,32(a5)
    1dc2:	8082                	c.jr	ra

00001dc4 <_write>:
    1dc4:	1101                	c.addi	sp,-32
    1dc6:	ce06                	c.swsp	ra,28(sp)
    1dc8:	cc22                	c.swsp	s0,24(sp)
    1dca:	ca26                	c.swsp	s1,20(sp)
    1dcc:	c84a                	c.swsp	s2,16(sp)
    1dce:	c64e                	c.swsp	s3,12(sp)
    1dd0:	89ae                	c.mv	s3,a1
    1dd2:	8932                	c.mv	s2,a2
    1dd4:	4401                	c.li	s0,0
    1dd6:	a019                	c.j	1ddc <_write+0x18>
    1dd8:	00140413          	addi	s0,s0,1
    1ddc:	03247063          	bgeu	s0,s2,1dfc <_write+0x38>
    1de0:	008984b3          	add	s1,s3,s0
    1de4:	0004c503          	lbu	a0,0(s1)
    1de8:	37e1                	c.jal	1db0 <_put_char>
    1dea:	0004c703          	lbu	a4,0(s1)
    1dee:	47a9                	c.li	a5,10
    1df0:	fef714e3          	bne	a4,a5,1dd8 <_write+0x14>
    1df4:	4535                	c.li	a0,13
    1df6:	3f6d                	c.jal	1db0 <_put_char>
    1df8:	fe1ff06f          	j	1dd8 <_write+0x14>
    1dfc:	854a                	c.mv	a0,s2
    1dfe:	40f2                	c.lwsp	ra,28(sp)
    1e00:	4462                	c.lwsp	s0,24(sp)
    1e02:	44d2                	c.lwsp	s1,20(sp)
    1e04:	4942                	c.lwsp	s2,16(sp)
    1e06:	49b2                	c.lwsp	s3,12(sp)
    1e08:	6105                	c.addi16sp	sp,32
    1e0a:	8082                	c.jr	ra

00001e0c <__floatundisf>:
    1e0c:	002007b7          	lui	a5,0x200
    1e10:	00f5e663          	bltu	a1,a5,1e1c <__floatundisf+0x10>
    1e14:	01551713          	slli	a4,a0,0x15
    1e18:	02071063          	bnez	a4,1e38 <__floatundisf+0x2c>
    1e1c:	d2158553          	fcvt.d.wu	fa0,a1
    1e20:	000037b7          	lui	a5,0x3
    1e24:	d787b707          	fld	fa4,-648(a5) # 2d78 <__init_array_end>
    1e28:	d21507d3          	fcvt.d.wu	fa5,a0
    1e2c:	7ae57543          	fmadd.d	fa0,fa0,fa4,fa5
    1e30:	40157553          	fcvt.s.d	fa0,fa0
    1e34:	00008067          	ret
    1e38:	6785                	c.lui	a5,0x1
    1e3a:	80078793          	addi	a5,a5,-2048 # 800 <dma_channel_configure+0x178>
    1e3e:	80057513          	andi	a0,a0,-2048
    1e42:	8d5d                	c.or	a0,a5
    1e44:	d2158553          	fcvt.d.wu	fa0,a1
    1e48:	000037b7          	lui	a5,0x3
    1e4c:	d787b707          	fld	fa4,-648(a5) # 2d78 <__init_array_end>
    1e50:	d21507d3          	fcvt.d.wu	fa5,a0
    1e54:	7ae57543          	fmadd.d	fa0,fa0,fa4,fa5
    1e58:	40157553          	fcvt.s.d	fa0,fa0
    1e5c:	8082                	c.jr	ra

00001e5e <__libc_init_array>:
    1e5e:	37f002ef          	jal	t0,29dc <__riscv_save_0>
    1e62:	801f978b          	addigp	a5,-2048 # 2d78 <__init_array_end>
    1e66:	801f940b          	addigp	s0,-2048 # 2d78 <__init_array_end>
    1e6a:	8c1d                	c.sub	s0,a5
    1e6c:	8409                	c.srai	s0,0x2
    1e6e:	801f948b          	addigp	s1,-2048 # 2d78 <__init_array_end>
    1e72:	4901                	c.li	s2,0
    1e74:	02891163          	bne	s2,s0,1e96 <__libc_init_array+0x38>
    1e78:	dd4fe0ef          	jal	ra,44c <_init>
    1e7c:	801f978b          	addigp	a5,-2048 # 2d78 <__init_array_end>
    1e80:	801f940b          	addigp	s0,-2048 # 2d78 <__init_array_end>
    1e84:	8c1d                	c.sub	s0,a5
    1e86:	8409                	c.srai	s0,0x2
    1e88:	801f948b          	addigp	s1,-2048 # 2d78 <__init_array_end>
    1e8c:	4901                	c.li	s2,0
    1e8e:	00891963          	bne	s2,s0,1ea0 <__libc_init_array+0x42>
    1e92:	36f0006f          	j	2a00 <__riscv_restore_0>
    1e96:	409c                	c.lw	a5,0(s1)
    1e98:	0905                	c.addi	s2,1
    1e9a:	0491                	c.addi	s1,4
    1e9c:	9782                	c.jalr	a5
    1e9e:	bfd9                	c.j	1e74 <__libc_init_array+0x16>
    1ea0:	409c                	c.lw	a5,0(s1)
    1ea2:	0905                	c.addi	s2,1
    1ea4:	0491                	c.addi	s1,4
    1ea6:	9782                	c.jalr	a5
    1ea8:	b7dd                	c.j	1e8e <__libc_init_array+0x30>
    1eaa:	0001                	c.nop

00001eac <memset>:
    1eac:	832a                	c.mv	t1,a0
    1eae:	00c503b3          	add	t2,a0,a2
    1eb2:	00357693          	andi	a3,a0,3
    1eb6:	ce81                	c.beqz	a3,1ece <memset+0x22>
    1eb8:	ffc68693          	addi	a3,a3,-4
    1ebc:	40d507b3          	sub	a5,a0,a3
    1ec0:	06f3e463          	bltu	t2,a5,1f28 <memset+0x7c>
    1ec4:	00b50023          	sb	a1,0(a0)
    1ec8:	0505                	c.addi	a0,1
    1eca:	fea79de3          	bne	a5,a0,1ec4 <memset+0x18>
    1ece:	04750d63          	beq	a0,t2,1f28 <memset+0x7c>
    1ed2:	05e2                	c.slli	a1,0x18
    1ed4:	0085d793          	srli	a5,a1,0x8
    1ed8:	95be                	c.add	a1,a5
    1eda:	0105d793          	srli	a5,a1,0x10
    1ede:	95be                	c.add	a1,a5
    1ee0:	40a38633          	sub	a2,t2,a0
    1ee4:	02000713          	li	a4,32
    1ee8:	fe067693          	andi	a3,a2,-32
    1eec:	00a687b3          	add	a5,a3,a0
    1ef0:	e285                	c.bnez	a3,1f10 <memset+0x64>
    1ef2:	ffc67693          	andi	a3,a2,-4
    1ef6:	ca8d                	c.beqz	a3,1f28 <memset+0x7c>
    1ef8:	40d70633          	sub	a2,a4,a3
    1efc:	00a687b3          	add	a5,a3,a0
    1f00:	8736                	c.mv	a4,a3
    1f02:	8205                	c.srli	a2,0x1
    1f04:	00000697          	auipc	a3,0x0
    1f08:	00c686b3          	add	a3,a3,a2
    1f0c:	00c68067          	jr	12(a3) # 1f10 <memset+0x64>
    1f10:	cd4c                	c.sw	a1,28(a0)
    1f12:	cd0c                	c.sw	a1,24(a0)
    1f14:	c94c                	c.sw	a1,20(a0)
    1f16:	c90c                	c.sw	a1,16(a0)
    1f18:	c54c                	c.sw	a1,12(a0)
    1f1a:	c50c                	c.sw	a1,8(a0)
    1f1c:	c14c                	c.sw	a1,4(a0)
    1f1e:	c10c                	c.sw	a1,0(a0)
    1f20:	953a                	c.add	a0,a4
    1f22:	fef517e3          	bne	a0,a5,1f10 <memset+0x64>
    1f26:	bf6d                	c.j	1ee0 <memset+0x34>
    1f28:	879e                	c.mv	a5,t2
    1f2a:	f8751de3          	bne	a0,t2,1ec4 <memset+0x18>
    1f2e:	851a                	c.mv	a0,t1
    1f30:	8082                	c.jr	ra

00001f32 <iprintf>:
    1f32:	7139                	c.addi16sp	sp,-64
    1f34:	d22e                	c.swsp	a1,36(sp)
    1f36:	104c                	c.addi4spn	a1,sp,36
    1f38:	ce06                	c.swsp	ra,28(sp)
    1f3a:	d432                	c.swsp	a2,40(sp)
    1f3c:	d636                	c.swsp	a3,44(sp)
    1f3e:	d83a                	c.swsp	a4,48(sp)
    1f40:	da3e                	c.swsp	a5,52(sp)
    1f42:	dc42                	c.swsp	a6,56(sp)
    1f44:	de46                	c.swsp	a7,60(sp)
    1f46:	c62e                	c.swsp	a1,12(sp)
    1f48:	2081                	c.jal	1f88 <viprintf>
    1f4a:	40f2                	c.lwsp	ra,28(sp)
    1f4c:	6121                	c.addi16sp	sp,64
    1f4e:	8082                	c.jr	ra

00001f50 <__vprintf_help>:
    1f50:	28d002ef          	jal	t0,29dc <__riscv_save_0>
    1f54:	84ffa7ab          	lwgp	a5,-1972 # 2dc4 <__printf_count>
    1f58:	0785                	c.addi	a5,1
    1f5a:	84ffc7ab          	swgp	a5,-1972 # 2dc4 <__printf_count>
    1f5e:	84bfa5ab          	lwgp	a1,-1976 # 2dc0 <__vprintf_buf>
    1f62:	847fa7ab          	lwgp	a5,-1980 # 2dbc <__vprintf_buf_len>
    1f66:	00178713          	addi	a4,a5,1
    1f6a:	97ae                	c.add	a5,a1
    1f6c:	84efc3ab          	swgp	a4,-1980 # 2dbc <__vprintf_buf_len>
    1f70:	00a78023          	sb	a0,0(a5)
    1f74:	4007685b          	bnec	a4,64,1f84 <__vprintf_help+0x34>
    1f78:	04000613          	li	a2,64
    1f7c:	4505                	c.li	a0,1
    1f7e:	3599                	c.jal	1dc4 <_write>
    1f80:	840fc3ab          	swgp	zero,-1980 # 2dbc <__vprintf_buf_len>
    1f84:	27d0006f          	j	2a00 <__riscv_restore_0>

00001f88 <viprintf>:
    1f88:	1141                	c.addi	sp,-16
    1f8a:	c606                	c.swsp	ra,12(sp)
    1f8c:	c422                	c.swsp	s0,8(sp)
    1f8e:	c226                	c.swsp	s1,4(sp)
    1f90:	0800                	c.addi4spn	s0,sp,16
    1f92:	c04a                	c.swsp	s2,0(sp)
    1f94:	715d                	c.addi16sp	sp,-80
    1f96:	00f10793          	addi	a5,sp,15
    1f9a:	9bc1                	c.andi	a5,-16
    1f9c:	9d9d960b          	addigp	a2,-5672 # 1f50 <__vprintf_help>
    1fa0:	84ffc5ab          	swgp	a5,-1976 # 2dc0 <__vprintf_buf>
    1fa4:	840fc3ab          	swgp	zero,-1980 # 2dbc <__vprintf_buf_len>
    1fa8:	20ad                	c.jal	2012 <__printf_impl>
    1faa:	847fa62b          	lwgp	a2,-1980 # 2dbc <__vprintf_buf_len>
    1fae:	84bfa5ab          	lwgp	a1,-1976 # 2dc0 <__vprintf_buf>
    1fb2:	4505                	c.li	a0,1
    1fb4:	3d01                	c.jal	1dc4 <_write>
    1fb6:	84ffa52b          	lwgp	a0,-1972 # 2dc4 <__printf_count>
    1fba:	ff040113          	addi	sp,s0,-16
    1fbe:	40b2                	c.lwsp	ra,12(sp)
    1fc0:	4422                	c.lwsp	s0,8(sp)
    1fc2:	4492                	c.lwsp	s1,4(sp)
    1fc4:	4902                	c.lwsp	s2,0(sp)
    1fc6:	0141                	c.addi	sp,16
    1fc8:	8082                	c.jr	ra

00001fca <__print_integral>:
    1fca:	213002ef          	jal	t0,29dc <__riscv_save_0>
    1fce:	1101                	c.addi	sp,-32
    1fd0:	842a                	c.mv	s0,a0
    1fd2:	84ae                	c.mv	s1,a1
    1fd4:	8932                	c.mv	s2,a2
    1fd6:	c636                	c.swsp	a3,12(sp)
    1fd8:	853a                	c.mv	a0,a4
    1fda:	85be                	c.mv	a1,a5
    1fdc:	0830                	c.addi4spn	a2,sp,24
    1fde:	ca3e                	c.swsp	a5,20(sp)
    1fe0:	29bd                	c.jal	245e <__int_to_poly>
    1fe2:	46b2                	c.lwsp	a3,12(sp)
    1fe4:	882a                	c.mv	a6,a0
    1fe6:	083c                	c.addi4spn	a5,sp,24
    1fe8:	0858                	c.addi4spn	a4,sp,20
    1fea:	864a                	c.mv	a2,s2
    1fec:	85a6                	c.mv	a1,s1
    1fee:	8522                	c.mv	a0,s0
    1ff0:	2179                	c.jal	247e <__print_integral_poly>
    1ff2:	e5cf978b          	addigp	a5,-2468 # 2bd4 <__digits>
    1ff6:	00a46563          	bltu	s0,a0,2000 <__print_integral+0x36>
    1ffa:	6105                	c.addi16sp	sp,32
    1ffc:	2050006f          	j	2a00 <__riscv_restore_0>
    2000:	00044703          	lbu	a4,0(s0)
    2004:	0405                	c.addi	s0,1
    2006:	973e                	c.add	a4,a5
    2008:	00074703          	lbu	a4,0(a4) # f0300000 <boot_loader+0x70300000>
    200c:	fee40fa3          	sb	a4,-1(s0)
    2010:	b7dd                	c.j	1ff6 <__print_integral+0x2c>

00002012 <__printf_impl>:
    2012:	19b002ef          	jal	t0,29ac <__riscv_save_12>
    2016:	a6010113          	addi	sp,sp,-1440
    201a:	6b85                	c.lui	s7,0x1
    201c:	842e                	c.mv	s0,a1
    201e:	e6cf958b          	addigp	a1,-2452 # 2be4 <__digits+0x10>
    2022:	892a                	c.mv	s2,a0
    2024:	89b2                	c.mv	s3,a2
    2026:	01c10a93          	addi	s5,sp,28
    202a:	800b8b93          	addi	s7,s7,-2048 # 800 <dma_channel_configure+0x178>
    202e:	840fc7ab          	swgp	zero,-1972 # 2dc4 <__printf_count>
    2032:	c42e                	c.swsp	a1,8(sp)
    2034:	00094503          	lbu	a0,0(s2)
    2038:	e509                	c.bnez	a0,2042 <__printf_impl+0x30>
    203a:	5a010113          	addi	sp,sp,1440
    203e:	1ab0006f          	j	29e8 <__riscv_restore_12>
    2042:	00190493          	addi	s1,s2,1
    2046:	005555db          	beqc	a0,37,2050 <__printf_impl+0x3e>
    204a:	9982                	c.jalr	s3
    204c:	8926                	c.mv	s2,s1
    204e:	b7dd                	c.j	2034 <__printf_impl+0x22>
    2050:	00194783          	lbu	a5,1(s2)
    2054:	0057e8db          	bnec	a5,37,2064 <__printf_impl+0x52>
    2058:	02500513          	li	a0,37
    205c:	00290493          	addi	s1,s2,2
    2060:	9982                	c.jalr	s3
    2062:	b7ed                	c.j	204c <__printf_impl+0x3a>
    2064:	4681                	c.li	a3,0
    2066:	4701                	c.li	a4,0
    2068:	d002                	c.swsp	zero,32(sp)
    206a:	0004c783          	lbu	a5,0(s1)
    206e:	0007e7db          	bnec	a5,32,207c <__printf_impl+0x6a>
    2072:	00276713          	ori	a4,a4,2
    2076:	0485                	c.addi	s1,1
    2078:	4685                	c.li	a3,1
    207a:	bfc5                	c.j	206a <__printf_impl+0x58>
    207c:	00d7e5db          	bnec	a5,45,2086 <__printf_impl+0x74>
    2080:	00476713          	ori	a4,a4,4
    2084:	bfcd                	c.j	2076 <__printf_impl+0x64>
    2086:	00b7e5db          	bnec	a5,43,2090 <__printf_impl+0x7e>
    208a:	00876713          	ori	a4,a4,8
    208e:	b7e5                	c.j	2076 <__printf_impl+0x64>
    2090:	0037e5db          	bnec	a5,35,209a <__printf_impl+0x88>
    2094:	01076713          	ori	a4,a4,16
    2098:	bff9                	c.j	2076 <__printf_impl+0x64>
    209a:	0107e5db          	bnec	a5,48,20a4 <__printf_impl+0x92>
    209e:	02076713          	ori	a4,a4,32
    20a2:	bfd1                	c.j	2076 <__printf_impl+0x64>
    20a4:	c291                	c.beqz	a3,20a8 <__printf_impl+0x96>
    20a6:	d03a                	c.swsp	a4,32(sp)
    20a8:	04a7eadb          	bnec	a5,42,20fc <__printf_impl+0xea>
    20ac:	00042a03          	lw	s4,0(s0)
    20b0:	00440713          	addi	a4,s0,4
    20b4:	000a5863          	bgez	s4,20c4 <__printf_impl+0xb2>
    20b8:	5782                	c.lwsp	a5,32(sp)
    20ba:	41400a33          	neg	s4,s4
    20be:	0047e793          	ori	a5,a5,4
    20c2:	d03e                	c.swsp	a5,32(sp)
    20c4:	0485                	c.addi	s1,1
    20c6:	843a                	c.mv	s0,a4
    20c8:	0004c783          	lbu	a5,0(s1)
    20cc:	5dfd                	c.li	s11,-1
    20ce:	06e7e4db          	bnec	a5,46,2136 <__printf_impl+0x124>
    20d2:	0014c783          	lbu	a5,1(s1)
    20d6:	04a7dbdb          	beqc	a5,42,212c <__printf_impl+0x11a>
    20da:	0485                	c.addi	s1,1
    20dc:	4d81                	c.li	s11,0
    20de:	4725                	c.li	a4,9
    20e0:	4629                	c.li	a2,10
    20e2:	0004c783          	lbu	a5,0(s1)
    20e6:	fd078793          	addi	a5,a5,-48
    20ea:	0ff7f693          	andi	a3,a5,255
    20ee:	04d76463          	bltu	a4,a3,2136 <__printf_impl+0x124>
    20f2:	c4cd97ff          	maddr32	a5,s11,a2
    20f6:	0485                	c.addi	s1,1
    20f8:	8dbe                	c.mv	s11,a5
    20fa:	b7e5                	c.j	20e2 <__printf_impl+0xd0>
    20fc:	fd078793          	addi	a5,a5,-48
    2100:	0ff7f793          	andi	a5,a5,255
    2104:	4725                	c.li	a4,9
    2106:	4a01                	c.li	s4,0
    2108:	fcf760e3          	bltu	a4,a5,20c8 <__printf_impl+0xb6>
    210c:	4725                	c.li	a4,9
    210e:	4629                	c.li	a2,10
    2110:	a029                	c.j	211a <__printf_impl+0x108>
    2112:	c4ca17ff          	maddr32	a5,s4,a2
    2116:	0485                	c.addi	s1,1
    2118:	8a3e                	c.mv	s4,a5
    211a:	0004c783          	lbu	a5,0(s1)
    211e:	fd078793          	addi	a5,a5,-48
    2122:	0ff7f693          	andi	a3,a5,255
    2126:	fed776e3          	bgeu	a4,a3,2112 <__printf_impl+0x100>
    212a:	bf79                	c.j	20c8 <__printf_impl+0xb6>
    212c:	401c                	c.lw	a5,0(s0)
    212e:	0489                	c.addi	s1,2
    2130:	0411                	c.addi	s0,4
    2132:	f2fd8dff          	maxw	s11,s11,a5
    2136:	43200613          	li	a2,1074
    213a:	0004c783          	lbu	a5,0(s1)
    213e:	f0cd867f          	minw	a2,s11,a2
    2142:	4687e2db          	bnec	a5,104,21a6 <__printf_impl+0x194>
    2146:	5782                	c.lwsp	a5,32(sp)
    2148:	0014c703          	lbu	a4,1(s1)
    214c:	448767db          	bnec	a4,104,219a <__printf_impl+0x188>
    2150:	0407e793          	ori	a5,a5,64
    2154:	00248913          	addi	s2,s1,2
    2158:	d03e                	c.swsp	a5,32(sp)
    215a:	00094683          	lbu	a3,0(s2)
    215e:	07800793          	li	a5,120
    2162:	22d7ea63          	bltu	a5,a3,2396 <__printf_impl+0x384>
    2166:	05700793          	li	a5,87
    216a:	06d7e863          	bltu	a5,a3,21da <__printf_impl+0x1c8>
    216e:	4016d95b          	beqc	a3,65,2180 <__printf_impl+0x16e>
    2172:	fbb68793          	addi	a5,a3,-69
    2176:	0ff7f793          	andi	a5,a5,255
    217a:	4709                	c.li	a4,2
    217c:	20f76d63          	bltu	a4,a5,2396 <__printf_impl+0x384>
    2180:	00740593          	addi	a1,s0,7
    2184:	99e1                	c.andi	a1,-8
    2186:	2188                	c.fld	fa0,0(a1)
    2188:	00858413          	addi	s0,a1,8
    218c:	1048                	c.addi4spn	a0,sp,36
    218e:	100c                	c.addi4spn	a1,sp,32
    2190:	0206fc93          	andi	s9,a3,32
    2194:	2e85                	c.jal	2504 <__printf_float_impl>
    2196:	84aa                	c.mv	s1,a0
    2198:	a8bd                	c.j	2216 <__printf_impl+0x204>
    219a:	0807e793          	ori	a5,a5,128
    219e:	00148913          	addi	s2,s1,1
    21a2:	d03e                	c.swsp	a5,32(sp)
    21a4:	bf5d                	c.j	215a <__printf_impl+0x148>
    21a6:	40c7eddb          	bnec	a5,108,21c0 <__printf_impl+0x1ae>
    21aa:	5782                	c.lwsp	a5,32(sp)
    21ac:	0014c703          	lbu	a4,1(s1)
    21b0:	40c765db          	bnec	a4,108,21ba <__printf_impl+0x1a8>
    21b4:	2007e793          	ori	a5,a5,512
    21b8:	bf71                	c.j	2154 <__printf_impl+0x142>
    21ba:	1007e793          	ori	a5,a5,256
    21be:	b7c5                	c.j	219e <__printf_impl+0x18c>
    21c0:	00148913          	addi	s2,s1,1
    21c4:	41a7e7db          	bnec	a5,122,21d2 <__printf_impl+0x1c0>
    21c8:	5782                	c.lwsp	a5,32(sp)
    21ca:	1007e793          	ori	a5,a5,256
    21ce:	d03e                	c.swsp	a5,32(sp)
    21d0:	b769                	c.j	215a <__printf_impl+0x148>
    21d2:	ff47dbdb          	beqc	a5,116,21c8 <__printf_impl+0x1b6>
    21d6:	8926                	c.mv	s2,s1
    21d8:	b749                	c.j	215a <__printf_impl+0x148>
    21da:	fa868793          	addi	a5,a3,-88
    21de:	0ff7f793          	andi	a5,a5,255
    21e2:	02000713          	li	a4,32
    21e6:	1af76863          	bltu	a4,a5,2396 <__printf_impl+0x384>
    21ea:	45a2                	c.lwsp	a1,8(sp)
    21ec:	0cf587db          	lea.w	a5,a1,a5
    21f0:	439c                	c.lw	a5,0(a5)
    21f2:	8782                	c.jr	a5
    21f4:	45a9                	c.li	a1,10
    21f6:	5782                	c.lwsp	a5,32(sp)
    21f8:	1267f25b          	bbc	a5,6,231c <__printf_impl+0x30a>
    21fc:	00044703          	lbu	a4,0(s0)
    2200:	00440d13          	addi	s10,s0,4
    2204:	4781                	c.li	a5,0
    2206:	a281                	c.j	2346 <__printf_impl+0x334>
    2208:	401c                	c.lw	a5,0(s0)
    220a:	4c81                	c.li	s9,0
    220c:	0411                	c.addi	s0,4
    220e:	02510493          	addi	s1,sp,37
    2212:	02f10223          	sb	a5,36(sp)
    2216:	02410c13          	addi	s8,sp,36
    221a:	a01d                	c.j	2240 <__printf_impl+0x22e>
    221c:	00042c03          	lw	s8,0(s0)
    2220:	85b2                	c.mv	a1,a2
    2222:	8562                	c.mv	a0,s8
    2224:	c632                	c.swsp	a2,12(sp)
    2226:	2731                	c.jal	2932 <strnlen>
    2228:	57fd                	c.li	a5,-1
    222a:	00440c93          	addi	s9,s0,4
    222e:	00fd8563          	beq	s11,a5,2238 <__printf_impl+0x226>
    2232:	4632                	c.lwsp	a2,12(sp)
    2234:	f0c5057f          	minw	a0,a0,a2
    2238:	8466                	c.mv	s0,s9
    223a:	00ac04b3          	add	s1,s8,a0
    223e:	4c81                	c.li	s9,0
    2240:	5782                	c.lwsp	a5,32(sp)
    2242:	02d00693          	li	a3,45
    2246:	40a7fb5b          	bbs	a5,10,225c <__printf_impl+0x24a>
    224a:	02b00693          	li	a3,43
    224e:	4037f75b          	bbs	a5,3,225c <__printf_impl+0x24a>
    2252:	8d56                	c.mv	s10,s5
    2254:	0017f85b          	bbc	a5,1,2264 <__printf_impl+0x252>
    2258:	02000693          	li	a3,32
    225c:	01d10d13          	addi	s10,sp,29
    2260:	00d10e23          	sb	a3,28(sp)
    2264:	0177f6b3          	and	a3,a5,s7
    2268:	ca91                	c.beqz	a3,227c <__printf_impl+0x26a>
    226a:	03000693          	li	a3,48
    226e:	00dd0023          	sb	a3,0(s10)
    2272:	05800693          	li	a3,88
    2276:	00dd00a3          	sb	a3,1(s10)
    227a:	0d09                	c.addi	s10,2
    227c:	5627f75b          	bbs	a5,2,23ea <__printf_impl+0x3d8>
    2280:	41848db3          	sub	s11,s1,s8
    2284:	4057f95b          	bbs	a5,5,2296 <__printf_impl+0x284>
    2288:	41ba07b3          	sub	a5,s4,s11
    228c:	415d06b3          	sub	a3,s10,s5
    2290:	8f95                	c.sub	a5,a3
    2292:	16f04a63          	bgtz	a5,2406 <__printf_impl+0x3f4>
    2296:	87d6                	c.mv	a5,s5
    2298:	a271                	c.j	2424 <__printf_impl+0x412>
    229a:	5682                	c.lwsp	a3,32(sp)
    229c:	0266f55b          	bbc	a3,6,22c6 <__printf_impl+0x2b4>
    22a0:	00040703          	lb	a4,0(s0)
    22a4:	00440d13          	addi	s10,s0,4
    22a8:	41f75793          	srai	a5,a4,0x1f
    22ac:	0407d463          	bgez	a5,22f4 <__printf_impl+0x2e2>
    22b0:	00e035b3          	snez	a1,a4
    22b4:	40f007b3          	neg	a5,a5
    22b8:	40e00733          	neg	a4,a4
    22bc:	8f8d                	c.sub	a5,a1
    22be:	4006e693          	ori	a3,a3,1024
    22c2:	d036                	c.swsp	a3,32(sp)
    22c4:	a805                	c.j	22f4 <__printf_impl+0x2e2>
    22c6:	0076f75b          	bbc	a3,7,22d4 <__printf_impl+0x2c2>
    22ca:	00041703          	lh	a4,0(s0)
    22ce:	00440d13          	addi	s10,s0,4
    22d2:	bfd9                	c.j	22a8 <__printf_impl+0x296>
    22d4:	0086f65b          	bbc	a3,8,22e0 <__printf_impl+0x2ce>
    22d8:	4018                	c.lw	a4,0(s0)
    22da:	00440d13          	addi	s10,s0,4
    22de:	b7e9                	c.j	22a8 <__printf_impl+0x296>
    22e0:	be96fc5b          	bbc	a3,9,22d8 <__printf_impl+0x2c6>
    22e4:	041d                	c.addi	s0,7
    22e6:	9861                	c.andi	s0,-8
    22e8:	405c                	c.lw	a5,4(s0)
    22ea:	4018                	c.lw	a4,0(s0)
    22ec:	00840d13          	addi	s10,s0,8
    22f0:	0007c963          	bltz	a5,2302 <__printf_impl+0x2f0>
    22f4:	56fd                	c.li	a3,-1
    22f6:	45a9                	c.li	a1,10
    22f8:	4c81                	c.li	s9,0
    22fa:	04dd9b63          	bne	s11,a3,2350 <__printf_impl+0x33e>
    22fe:	4605                	c.li	a2,1
    2300:	a0bd                	c.j	236e <__printf_impl+0x35c>
    2302:	f75d                	c.bnez	a4,22b0 <__printf_impl+0x29e>
    2304:	800005b7          	lui	a1,0x80000
    2308:	fab794e3          	bne	a5,a1,22b0 <__printf_impl+0x29e>
    230c:	4701                	c.li	a4,0
    230e:	800007b7          	lui	a5,0x80000
    2312:	b775                	c.j	22be <__printf_impl+0x2ac>
    2314:	45c1                	c.li	a1,16
    2316:	b5c5                	c.j	21f6 <__printf_impl+0x1e4>
    2318:	45a1                	c.li	a1,8
    231a:	bdf1                	c.j	21f6 <__printf_impl+0x1e4>
    231c:	0077f75b          	bbc	a5,7,232a <__printf_impl+0x318>
    2320:	00045703          	lhu	a4,0(s0)
    2324:	00440d13          	addi	s10,s0,4
    2328:	bdf1                	c.j	2204 <__printf_impl+0x1f2>
    232a:	0087f65b          	bbc	a5,8,2336 <__printf_impl+0x324>
    232e:	4018                	c.lw	a4,0(s0)
    2330:	00440d13          	addi	s10,s0,4
    2334:	bdc1                	c.j	2204 <__printf_impl+0x1f2>
    2336:	be97fc5b          	bbc	a5,9,232e <__printf_impl+0x31c>
    233a:	041d                	c.addi	s0,7
    233c:	9861                	c.andi	s0,-8
    233e:	4018                	c.lw	a4,0(s0)
    2340:	405c                	c.lw	a5,4(s0)
    2342:	00840d13          	addi	s10,s0,8
    2346:	0206fc93          	andi	s9,a3,32
    234a:	56fd                	c.li	a3,-1
    234c:	02dd8863          	beq	s11,a3,237c <__printf_impl+0x36a>
    2350:	5682                	c.lwsp	a3,32(sp)
    2352:	fdf6f693          	andi	a3,a3,-33
    2356:	d036                	c.swsp	a3,32(sp)
    2358:	0105eb5b          	bnec	a1,16,236e <__printf_impl+0x35c>
    235c:	5682                	c.lwsp	a3,32(sp)
    235e:	0046f85b          	bbc	a3,4,236e <__printf_impl+0x35c>
    2362:	00f76533          	or	a0,a4,a5
    2366:	c501                	c.beqz	a0,236e <__printf_impl+0x35c>
    2368:	0176e6b3          	or	a3,a3,s7
    236c:	d036                	c.swsp	a3,32(sp)
    236e:	86b2                	c.mv	a3,a2
    2370:	5602                	c.lwsp	a2,32(sp)
    2372:	1048                	c.addi4spn	a0,sp,36
    2374:	3999                	c.jal	1fca <__print_integral>
    2376:	846a                	c.mv	s0,s10
    2378:	84aa                	c.mv	s1,a0
    237a:	bd71                	c.j	2216 <__printf_impl+0x204>
    237c:	4605                	c.li	a2,1
    237e:	bfe9                	c.j	2358 <__printf_impl+0x346>
    2380:	5602                	c.lwsp	a2,32(sp)
    2382:	84ffa7ab          	lwgp	a5,-1972 # 2dc4 <__printf_count>
    2386:	4018                	c.lw	a4,0(s0)
    2388:	00440693          	addi	a3,s0,4
    238c:	0066795b          	bbc	a2,6,239e <__printf_impl+0x38c>
    2390:	00f70023          	sb	a5,0(a4)
    2394:	8436                	c.mv	s0,a3
    2396:	1044                	c.addi4spn	s1,sp,36
    2398:	4c81                	c.li	s9,0
    239a:	8c26                	c.mv	s8,s1
    239c:	b555                	c.j	2240 <__printf_impl+0x22e>
    239e:	0076755b          	bbc	a2,7,23a8 <__printf_impl+0x396>
    23a2:	00f71023          	sh	a5,0(a4)
    23a6:	b7fd                	c.j	2394 <__printf_impl+0x382>
    23a8:	c31c                	c.sw	a5,0(a4)
    23aa:	fe86755b          	bbs	a2,8,2394 <__printf_impl+0x382>
    23ae:	be96735b          	bbc	a2,9,2394 <__printf_impl+0x382>
    23b2:	87fd                	c.srai	a5,0x1f
    23b4:	c35c                	c.sw	a5,4(a4)
    23b6:	bff9                	c.j	2394 <__printf_impl+0x382>
    23b8:	000dc503          	lbu	a0,0(s11)
    23bc:	0d85                	c.addi	s11,1
    23be:	00ace533          	or	a0,s9,a0
    23c2:	9982                	c.jalr	s3
    23c4:	ffadeae3          	bltu	s11,s10,23b8 <__printf_impl+0x3a6>
    23c8:	4781                	c.li	a5,0
    23ca:	015d6463          	bltu	s10,s5,23d2 <__printf_impl+0x3c0>
    23ce:	41aa87b3          	sub	a5,s5,s10
    23d2:	9a3e                	c.add	s4,a5
    23d4:	8d62                	c.mv	s10,s8
    23d6:	01a49c63          	bne	s1,s10,23ee <__printf_impl+0x3dc>
    23da:	418484b3          	sub	s1,s1,s8
    23de:	409a04b3          	sub	s1,s4,s1
    23e2:	00904d63          	bgtz	s1,23fc <__printf_impl+0x3ea>
    23e6:	0905                	c.addi	s2,1
    23e8:	b1b1                	c.j	2034 <__printf_impl+0x22>
    23ea:	8dd6                	c.mv	s11,s5
    23ec:	bfe1                	c.j	23c4 <__printf_impl+0x3b2>
    23ee:	000d4503          	lbu	a0,0(s10)
    23f2:	0d05                	c.addi	s10,1
    23f4:	00ace533          	or	a0,s9,a0
    23f8:	9982                	c.jalr	s3
    23fa:	bff1                	c.j	23d6 <__printf_impl+0x3c4>
    23fc:	02000513          	li	a0,32
    2400:	14fd                	c.addi	s1,-1
    2402:	9982                	c.jalr	s3
    2404:	bff9                	c.j	23e2 <__printf_impl+0x3d0>
    2406:	02000513          	li	a0,32
    240a:	c63e                	c.swsp	a5,12(sp)
    240c:	9982                	c.jalr	s3
    240e:	47b2                	c.lwsp	a5,12(sp)
    2410:	17fd                	c.addi	a5,-1
    2412:	b541                	c.j	2292 <__printf_impl+0x280>
    2414:	0007c503          	lbu	a0,0(a5) # 80000000 <boot_loader+0x0>
    2418:	c63e                	c.swsp	a5,12(sp)
    241a:	00ace533          	or	a0,s9,a0
    241e:	9982                	c.jalr	s3
    2420:	47b2                	c.lwsp	a5,12(sp)
    2422:	0785                	c.addi	a5,1
    2424:	ffa7e8e3          	bltu	a5,s10,2414 <__printf_impl+0x402>
    2428:	4781                	c.li	a5,0
    242a:	015d6463          	bltu	s10,s5,2432 <__printf_impl+0x420>
    242e:	41aa87b3          	sub	a5,s5,s10
    2432:	9a3e                	c.add	s4,a5
    2434:	5782                	c.lwsp	a5,32(sp)
    2436:	0057f65b          	bbc	a5,5,2442 <__printf_impl+0x430>
    243a:	41ba0a33          	sub	s4,s4,s11
    243e:	01404b63          	bgtz	s4,2454 <__printf_impl+0x442>
    2442:	fb8482e3          	beq	s1,s8,23e6 <__printf_impl+0x3d4>
    2446:	000c4503          	lbu	a0,0(s8)
    244a:	0c05                	c.addi	s8,1
    244c:	00ace533          	or	a0,s9,a0
    2450:	9982                	c.jalr	s3
    2452:	bfc5                	c.j	2442 <__printf_impl+0x430>
    2454:	03000513          	li	a0,48
    2458:	1a7d                	c.addi	s4,-1
    245a:	9982                	c.jalr	s3
    245c:	b7cd                	c.j	243e <__printf_impl+0x42c>

0000245e <__int_to_poly>:
    245e:	872a                	c.mv	a4,a0
    2460:	87ae                	c.mv	a5,a1
    2462:	4501                	c.li	a0,0
    2464:	00f766b3          	or	a3,a4,a5
    2468:	e291                	c.bnez	a3,246c <__int_to_poly+0xe>
    246a:	8082                	c.jr	ra
    246c:	0aa606db          	lea.h	a3,a2,a0
    2470:	00e69023          	sh	a4,0(a3)
    2474:	0505                	c.addi	a0,1
    2476:	df07077f          	wexti	a4,a4,16
    247a:	83c1                	c.srli	a5,0x10
    247c:	b7e5                	c.j	2464 <__int_to_poly+0x6>

0000247e <__print_integral_poly>:
    247e:	55e002ef          	jal	t0,29dc <__riscv_save_0>
    2482:	84ba                	c.mv	s1,a4
    2484:	fff80893          	addi	a7,a6,-1
    2488:	0b07875b          	lea.h	a4,a5,a6
    248c:	8346                	c.mv	t1,a7
    248e:	4401                	c.li	s0,0
    2490:	8e3a                	c.mv	t3,a4
    2492:	1779                	c.addi	a4,-2
    2494:	02035563          	bgez	t1,24be <__print_integral_poly+0x40>
    2498:	03005f63          	blez	a6,24d6 <__print_integral_poly+0x58>
    249c:	ffee5703          	lhu	a4,-2(t3)
    24a0:	e701                	c.bnez	a4,24a8 <__print_integral_poly+0x2a>
    24a2:	03105a63          	blez	a7,24d6 <__print_integral_poly+0x58>
    24a6:	8846                	c.mv	a6,a7
    24a8:	8726                	c.mv	a4,s1
    24aa:	16fd                	c.addi	a3,-1
    24ac:	3fc9                	c.jal	247e <__print_integral_poly>
    24ae:	87aa                	c.mv	a5,a0
    24b0:	0505                	c.addi	a0,1
    24b2:	00878023          	sb	s0,0(a5)
    24b6:	409c                	c.lw	a5,0(s1)
    24b8:	0785                	c.addi	a5,1
    24ba:	c09c                	c.sw	a5,0(s1)
    24bc:	a391                	c.j	2a00 <__riscv_restore_0>
    24be:	00075e83          	lhu	t4,0(a4)
    24c2:	0442                	c.slli	s0,0x10
    24c4:	9476                	c.add	s0,t4
    24c6:	02b45eb3          	divu	t4,s0,a1
    24ca:	137d                	c.addi	t1,-1
    24cc:	02b47433          	remu	s0,s0,a1
    24d0:	01d71023          	sh	t4,0(a4)
    24d4:	bf7d                	c.j	2492 <__print_integral_poly+0x14>
    24d6:	c011                	c.beqz	s0,24da <__print_integral_poly+0x5c>
    24d8:	16fd                	c.addi	a3,-1
    24da:	00d04763          	bgtz	a3,24e8 <__print_integral_poly+0x6a>
    24de:	0085ee5b          	bnec	a1,8,24fa <__print_integral_poly+0x7c>
    24e2:	00467c5b          	bbc	a2,4,24fa <__print_integral_poly+0x7c>
    24e6:	4685                	c.li	a3,1
    24e8:	4781                	c.li	a5,0
    24ea:	00f50733          	add	a4,a0,a5
    24ee:	00070023          	sb	zero,0(a4)
    24f2:	0785                	c.addi	a5,1
    24f4:	fed7cbe3          	blt	a5,a3,24ea <__print_integral_poly+0x6c>
    24f8:	9536                	c.add	a0,a3
    24fa:	dc55                	c.beqz	s0,24b6 <__print_integral_poly+0x38>
    24fc:	00850023          	sb	s0,0(a0)
    2500:	0505                	c.addi	a0,1
    2502:	bf55                	c.j	24b6 <__print_integral_poly+0x38>

00002504 <__printf_float_impl>:
    2504:	4a8002ef          	jal	t0,29ac <__riscv_save_12>
    2508:	7129                	c.addi16sp	sp,-320
    250a:	a42a                	c.fsdsp	fa0,8(sp)
    250c:	4d22                	c.lwsp	s10,8(sp)
    250e:	0df6fc13          	andi	s8,a3,223
    2512:	c436                	c.swsp	a3,8(sp)
    2514:	4db2                	c.lwsp	s11,12(sp)
    2516:	8aaa                	c.mv	s5,a0
    2518:	892e                	c.mv	s2,a1
    251a:	84b2                	c.mv	s1,a2
    251c:	467c6a5b          	bnec	s8,71,2590 <__printf_float_impl+0x8c>
    2520:	0005a983          	lw	s3,0(a1) # 80000000 <boot_loader+0x0>
    2524:	0109c993          	xori	s3,s3,16
    2528:	1049a9db          	bfoz	s3,s3,4,4
    252c:	0604d863          	bgez	s1,259c <__printf_float_impl+0x98>
    2530:	44b5                	c.li	s1,13
    2532:	401c535b          	beqc	s8,65,2538 <__printf_float_impl+0x34>
    2536:	4499                	c.li	s1,6
    2538:	dffd047f          	wexti	s0,s10,31
    253c:	ca6a                	c.swsp	s10,20(sp)
    253e:	8055                	c.srli	s0,0x15
    2540:	4c0daa5b          	bfoz	s4,s11,19,0
    2544:	000dd863          	bgez	s11,2554 <__printf_float_impl+0x50>
    2548:	00092703          	lw	a4,0(s2)
    254c:	40076713          	ori	a4,a4,1024
    2550:	00e92023          	sw	a4,0(s2)
    2554:	401c6a5b          	bnec	s8,65,2568 <__printf_float_impl+0x64>
    2558:	00092703          	lw	a4,0(s2)
    255c:	6685                	c.lui	a3,0x1
    255e:	80068693          	addi	a3,a3,-2048 # 800 <dma_channel_configure+0x178>
    2562:	8f55                	c.or	a4,a3
    2564:	00e92023          	sw	a4,0(s2)
    2568:	7ff00713          	li	a4,2047
    256c:	04e41163          	bne	s0,a4,25ae <__printf_float_impl+0xaa>
    2570:	00092703          	lw	a4,0(s2)
    2574:	01aa65b3          	or	a1,s4,s10
    2578:	fdf77713          	andi	a4,a4,-33
    257c:	00e92023          	sw	a4,0(s2)
    2580:	c585                	c.beqz	a1,25a8 <__printf_float_impl+0xa4>
    2582:	ef0f958b          	addigp	a1,-2320 # 2c68 <__digits+0x94>
    2586:	8556                	c.mv	a0,s5
    2588:	2e95                	c.jal	28fc <strcpy>
    258a:	050d                	c.addi	a0,3
    258c:	6131                	c.addi16sp	sp,320
    258e:	a9a9                	c.j	29e8 <__riscv_restore_12>
    2590:	4981                	c.li	s3,0
    2592:	f81c6d5b          	bnec	s8,65,252c <__printf_float_impl+0x28>
    2596:	01f65993          	srli	s3,a2,0x1f
    259a:	bf49                	c.j	252c <__printf_float_impl+0x28>
    259c:	fcd1                	c.bnez	s1,2538 <__printf_float_impl+0x34>
    259e:	fb9c0493          	addi	s1,s8,-71
    25a2:	0014b493          	seqz	s1,s1
    25a6:	bf49                	c.j	2538 <__printf_float_impl+0x34>
    25a8:	ef4f958b          	addigp	a1,-2316 # 2c6c <__digits+0x98>
    25ac:	bfe9                	c.j	2586 <__printf_float_impl+0x82>
    25ae:	e811                	c.bnez	s0,25c2 <__printf_float_impl+0xbe>
    25b0:	01aa6733          	or	a4,s4,s10
    25b4:	c0300413          	li	s0,-1021
    25b8:	18071363          	bnez	a4,273e <__printf_float_impl+0x23a>
    25bc:	03500413          	li	s0,53
    25c0:	a819                	c.j	25d6 <__printf_float_impl+0xd2>
    25c2:	00100737          	lui	a4,0x100
    25c6:	01476a33          	or	s4,a4,s4
    25ca:	c0240413          	addi	s0,s0,-1022
    25ce:	03400713          	li	a4,52
    25d2:	16875463          	bge	a4,s0,273a <__printf_float_impl+0x236>
    25d6:	fcb40413          	addi	s0,s0,-53
    25da:	00445b13          	srli	s6,s0,0x4
    25de:	001b1b93          	slli	s7,s6,0x1
    25e2:	865e                	c.mv	a2,s7
    25e4:	4581                	c.li	a1,0
    25e6:	1808                	c.addi4spn	a0,sp,48
    25e8:	8c5ff0ef          	jal	ra,1eac <memset>
    25ec:	883d                	c.andi	s0,15
    25ee:	028c                	c.addi4spn	a1,sp,320
    25f0:	9bae                	c.add	s7,a1
    25f2:	8622                	c.mv	a2,s0
    25f4:	856a                	c.mv	a0,s10
    25f6:	85d2                	c.mv	a1,s4
    25f8:	2651                	c.jal	297c <__ashldi3>
    25fa:	0b05                	c.addi	s6,1
    25fc:	180c                	c.addi4spn	a1,sp,48
    25fe:	4641                	c.li	a2,16
    2600:	eeab9823          	sh	a0,-272(s7)
    2604:	8e01                	c.sub	a2,s0
    2606:	0b658bdb          	lea.h	s7,a1,s6
    260a:	856a                	c.mv	a0,s10
    260c:	85d2                	c.mv	a1,s4
    260e:	2e3d                	c.jal	294c <__lshrdi3>
    2610:	865e                	c.mv	a2,s7
    2612:	35b1                	c.jal	245e <__int_to_poly>
    2614:	4c81                	c.li	s9,0
    2616:	9b2a                	c.add	s6,a0
    2618:	57fd                	c.li	a5,-1
    261a:	d63e                	c.swsp	a5,44(sp)
    261c:	4441                	c.li	s0,16
    261e:	401c535b          	beqc	s8,65,2624 <__printf_float_impl+0x120>
    2622:	4429                	c.li	s0,10
    2624:	885a                	c.mv	a6,s6
    2626:	181c                	c.addi4spn	a5,sp,48
    2628:	4601                	c.li	a2,0
    262a:	85a2                	c.mv	a1,s0
    262c:	1078                	c.addi4spn	a4,sp,44
    262e:	4685                	c.li	a3,1
    2630:	8556                	c.mv	a0,s5
    2632:	35b1                	c.jal	247e <__print_integral_poly>
    2634:	45a2                	c.lwsp	a1,8(sp)
    2636:	02e00793          	li	a5,46
    263a:	001b3b13          	seqz	s6,s6
    263e:	00f50023          	sb	a5,0(a0)
    2642:	0db5fa13          	andi	s4,a1,219
    2646:	00150613          	addi	a2,a0,1
    264a:	87da                	c.mv	a5,s6
    264c:	401a535b          	beqc	s4,65,2652 <__printf_float_impl+0x14e>
    2650:	4781                	c.li	a5,0
    2652:	00148713          	addi	a4,s1,1
    2656:	973e                	c.add	a4,a5
    2658:	fffc8893          	addi	a7,s9,-1
    265c:	1934                	c.addi4spn	a3,sp,184
    265e:	001c9593          	slli	a1,s9,0x1
    2662:	0b9686db          	lea.h	a3,a3,s9
    2666:	8846                	c.mv	a6,a7
    2668:	4781                	c.li	a5,0
    266a:	16f9                	c.addi	a3,-2
    266c:	16085c63          	bgez	a6,27e4 <__printf_float_impl+0x2e0>
    2670:	01905863          	blez	s9,2680 <__printf_float_impl+0x17c>
    2674:	0294                	c.addi4spn	a3,sp,320
    2676:	96ae                	c.add	a3,a1
    2678:	f766d683          	lhu	a3,-138(a3)
    267c:	e291                	c.bnez	a3,2680 <__printf_float_impl+0x17c>
    267e:	8cc6                	c.mv	s9,a7
    2680:	160b0b63          	beqz	s6,27f6 <__printf_float_impl+0x2f2>
    2684:	56b2                	c.lwsp	a3,44(sp)
    2686:	0017bb13          	seqz	s6,a5
    268a:	16fd                	c.addi	a3,-1
    268c:	d636                	c.swsp	a3,44(sp)
    268e:	00f60023          	sb	a5,0(a2)
    2692:	0605                	c.addi	a2,1
    2694:	f371                	c.bnez	a4,2658 <__printf_float_impl+0x154>
    2696:	567c635b          	bnec	s8,71,27fc <__printf_float_impl+0x2f8>
    269a:	57b2                	c.lwsp	a5,44(sp)
    269c:	fff48713          	addi	a4,s1,-1
    26a0:	1897d063          	bge	a5,s1,2820 <__printf_float_impl+0x31c>
    26a4:	56f1                	c.li	a3,-4
    26a6:	16d7cd63          	blt	a5,a3,2820 <__printf_float_impl+0x31c>
    26aa:	40f704b3          	sub	s1,a4,a5
    26ae:	04600c13          	li	s8,70
    26b2:	0489                	c.addi	s1,2
    26b4:	9526                	c.add	a0,s1
    26b6:	fff54683          	lbu	a3,-1(a0)
    26ba:	40145713          	srai	a4,s0,0x1
    26be:	fff50793          	addi	a5,a0,-1
    26c2:	00e6a6b3          	slt	a3,a3,a4
    26c6:	0016c693          	xori	a3,a3,1
    26ca:	863e                	c.mv	a2,a5
    26cc:	1acaf563          	bgeu	s5,a2,2876 <__printf_float_impl+0x372>
    26d0:	18069163          	bnez	a3,2852 <__printf_float_impl+0x34e>
    26d4:	17fd                	c.addi	a5,-1
    26d6:	00178513          	addi	a0,a5,1
    26da:	00faf763          	bgeu	s5,a5,26e8 <__printf_float_impl+0x1e4>
    26de:	00098563          	beqz	s3,26e8 <__printf_float_impl+0x1e4>
    26e2:	0007c703          	lbu	a4,0(a5)
    26e6:	d77d                	c.beqz	a4,26d4 <__printf_float_impl+0x1d0>
    26e8:	fff54783          	lbu	a5,-1(a0)
    26ec:	00e7e7db          	bnec	a5,46,26fa <__printf_float_impl+0x1f6>
    26f0:	00092783          	lw	a5,0(s2)
    26f4:	4047f35b          	bbs	a5,4,26fa <__printf_float_impl+0x1f6>
    26f8:	157d                	c.addi	a0,-1
    26fa:	46bd                	c.li	a3,15
    26fc:	e5cf970b          	addigp	a4,-2468 # 2bd4 <__digits>
    2700:	1aaae963          	bltu	s5,a0,28b2 <__printf_float_impl+0x3ae>
    2704:	5c5c625b          	bnec	s8,69,28c8 <__printf_float_impl+0x3c4>
    2708:	01850023          	sb	s8,0(a0)
    270c:	5732                	c.lwsp	a4,44(sp)
    270e:	02b00793          	li	a5,43
    2712:	00075463          	bgez	a4,271a <__printf_float_impl+0x216>
    2716:	02d00793          	li	a5,45
    271a:	00f500a3          	sb	a5,1(a0)
    271e:	57b2                	c.lwsp	a5,44(sp)
    2720:	4689                	c.li	a3,2
    2722:	40f00733          	neg	a4,a5
    2726:	f2f7077f          	maxw	a4,a4,a5
    272a:	41f75793          	srai	a5,a4,0x1f
    272e:	4601                	c.li	a2,0
    2730:	45a9                	c.li	a1,10
    2732:	0509                	c.addi	a0,2
    2734:	897ff0ef          	jal	ra,1fca <__print_integral>
    2738:	bd91                	c.j	258c <__printf_float_impl+0x88>
    273a:	06804163          	bgtz	s0,279c <__printf_float_impl+0x298>
    273e:	40800433          	neg	s0,s0
    2742:	00445b13          	srli	s6,s0,0x4
    2746:	001b1b93          	slli	s7,s6,0x1
    274a:	865e                	c.mv	a2,s7
    274c:	4581                	c.li	a1,0
    274e:	1928                	c.addi4spn	a0,sp,184
    2750:	f5cff0ef          	jal	ra,1eac <memset>
    2754:	192c                	c.addi4spn	a1,sp,184
    2756:	883d                	c.andi	s0,15
    2758:	9bae                	c.add	s7,a1
    275a:	02540413          	addi	s0,s0,37
    275e:	885e                	c.mv	a6,s7
    2760:	4701                	c.li	a4,0
    2762:	4552                	c.lwsp	a0,20(sp)
    2764:	8622                	c.mv	a2,s0
    2766:	8cba                	c.mv	s9,a4
    2768:	85d2                	c.mv	a1,s4
    276a:	0705                	c.addi	a4,1
    276c:	ce42                	c.swsp	a6,28(sp)
    276e:	cc3a                	c.swsp	a4,24(sp)
    2770:	2af1                	c.jal	294c <__lshrdi3>
    2772:	4872                	c.lwsp	a6,28(sp)
    2774:	1441                	c.addi	s0,-16
    2776:	00a81023          	sh	a0,0(a6)
    277a:	4762                	c.lwsp	a4,24(sp)
    277c:	0809                	c.addi	a6,2
    277e:	fe0452e3          	bgez	s0,2762 <__printf_float_impl+0x25e>
    2782:	0aeb8bdb          	lea.h	s7,s7,a4
    2786:	40800633          	neg	a2,s0
    278a:	856a                	c.mv	a0,s10
    278c:	85d2                	c.mv	a1,s4
    278e:	0c89                	c.addi	s9,2
    2790:	9cda                	c.add	s9,s6
    2792:	22ed                	c.jal	297c <__ashldi3>
    2794:	4b01                	c.li	s6,0
    2796:	00ab9023          	sh	a0,0(s7)
    279a:	bdbd                	c.j	2618 <__printf_float_impl+0x114>
    279c:	03500613          	li	a2,53
    27a0:	8e01                	c.sub	a2,s0
    27a2:	856a                	c.mv	a0,s10
    27a4:	85d2                	c.mv	a1,s4
    27a6:	225d                	c.jal	294c <__lshrdi3>
    27a8:	1810                	c.addi4spn	a2,sp,48
    27aa:	3955                	c.jal	245e <__int_to_poly>
    27ac:	02500613          	li	a2,37
    27b0:	8b2a                	c.mv	s6,a0
    27b2:	40860433          	sub	s0,a2,s0
    27b6:	0b810b93          	addi	s7,sp,184
    27ba:	4c81                	c.li	s9,0
    27bc:	0c85                	c.addi	s9,1
    27be:	00045a63          	bgez	s0,27d2 <__printf_float_impl+0x2ce>
    27c2:	40800633          	neg	a2,s0
    27c6:	856a                	c.mv	a0,s10
    27c8:	85d2                	c.mv	a1,s4
    27ca:	2a4d                	c.jal	297c <__ashldi3>
    27cc:	00ab9023          	sh	a0,0(s7)
    27d0:	b5a1                	c.j	2618 <__printf_float_impl+0x114>
    27d2:	4552                	c.lwsp	a0,20(sp)
    27d4:	8622                	c.mv	a2,s0
    27d6:	85d2                	c.mv	a1,s4
    27d8:	2a95                	c.jal	294c <__lshrdi3>
    27da:	1441                	c.addi	s0,-16
    27dc:	00ab9023          	sh	a0,0(s7)
    27e0:	0b89                	c.addi	s7,2
    27e2:	bfe9                	c.j	27bc <__printf_float_impl+0x2b8>
    27e4:	0006d303          	lhu	t1,0(a3)
    27e8:	187d                	c.addi	a6,-1
    27ea:	c48317ff          	maddr32	a5,t1,s0
    27ee:	00f69023          	sh	a5,0(a3)
    27f2:	83c1                	c.srli	a5,0x10
    27f4:	bd9d                	c.j	266a <__printf_float_impl+0x166>
    27f6:	177d                	c.addi	a4,-1
    27f8:	4b01                	c.li	s6,0
    27fa:	bd51                	c.j	268e <__printf_float_impl+0x18a>
    27fc:	8726                	c.mv	a4,s1
    27fe:	ea6c5a5b          	beqc	s8,70,26b2 <__printf_float_impl+0x1ae>
    2802:	57b2                	c.lwsp	a5,44(sp)
    2804:	001a8693          	addi	a3,s5,1
    2808:	02f04463          	bgtz	a5,2830 <__printf_float_impl+0x32c>
    280c:	c785                	c.beqz	a5,2834 <__printf_float_impl+0x330>
    280e:	40f507b3          	sub	a5,a0,a5
    2812:	02c7e963          	bltu	a5,a2,2844 <__printf_float_impl+0x340>
    2816:	001ac783          	lbu	a5,1(s5)
    281a:	00fa8023          	sb	a5,0(s5)
    281e:	a819                	c.j	2834 <__printf_float_impl+0x330>
    2820:	04500c13          	li	s8,69
    2824:	bff9                	c.j	2802 <__printf_float_impl+0x2fe>
    2826:	fff54783          	lbu	a5,-1(a0)
    282a:	157d                	c.addi	a0,-1
    282c:	00f500a3          	sb	a5,1(a0)
    2830:	fed51be3          	bne	a0,a3,2826 <__printf_float_impl+0x322>
    2834:	02e00793          	li	a5,46
    2838:	001a8513          	addi	a0,s5,1
    283c:	84ba                	c.mv	s1,a4
    283e:	00fa80a3          	sb	a5,1(s5)
    2842:	bd85                	c.j	26b2 <__printf_float_impl+0x1ae>
    2844:	0007c683          	lbu	a3,0(a5)
    2848:	0785                	c.addi	a5,1
    284a:	0505                	c.addi	a0,1
    284c:	fed50fa3          	sb	a3,-1(a0)
    2850:	b7c9                	c.j	2812 <__printf_float_impl+0x30e>
    2852:	167d                	c.addi	a2,-1
    2854:	00064703          	lbu	a4,0(a2)
    2858:	a6e75adb          	beqc	a4,46,26cc <__printf_float_impl+0x1c8>
    285c:	0705                	c.addi	a4,1
    285e:	0ff77713          	andi	a4,a4,255
    2862:	00875663          	bge	a4,s0,286e <__printf_float_impl+0x36a>
    2866:	4681                	c.li	a3,0
    2868:	00e60023          	sb	a4,0(a2)
    286c:	b585                	c.j	26cc <__printf_float_impl+0x1c8>
    286e:	8f01                	c.sub	a4,s0
    2870:	00e60023          	sb	a4,0(a2)
    2874:	bda1                	c.j	26cc <__printf_float_impl+0x1c8>
    2876:	873e                	c.mv	a4,a5
    2878:	e4068ee3          	beqz	a3,26d4 <__printf_float_impl+0x1d0>
    287c:	02eae363          	bltu	s5,a4,28a2 <__printf_float_impl+0x39e>
    2880:	4705                	c.li	a4,1
    2882:	00ea8023          	sb	a4,0(s5)
    2886:	5732                	c.lwsp	a4,44(sp)
    2888:	0705                	c.addi	a4,1
    288a:	d63a                	c.swsp	a4,44(sp)
    288c:	426c515b          	beqc	s8,70,28ae <__printf_float_impl+0x3aa>
    2890:	001ac703          	lbu	a4,1(s5)
    2894:	00ea8123          	sb	a4,2(s5)
    2898:	02e00713          	li	a4,46
    289c:	00ea80a3          	sb	a4,1(s5)
    28a0:	bd15                	c.j	26d4 <__printf_float_impl+0x1d0>
    28a2:	fff74683          	lbu	a3,-1(a4) # fffff <__global_pointer$+0xfca87>
    28a6:	177d                	c.addi	a4,-1
    28a8:	00d700a3          	sb	a3,1(a4)
    28ac:	bfc1                	c.j	287c <__printf_float_impl+0x378>
    28ae:	87aa                	c.mv	a5,a0
    28b0:	b515                	c.j	26d4 <__printf_float_impl+0x1d0>
    28b2:	000ac783          	lbu	a5,0(s5)
    28b6:	00f6e763          	bltu	a3,a5,28c4 <__printf_float_impl+0x3c0>
    28ba:	97ba                	c.add	a5,a4
    28bc:	0007c783          	lbu	a5,0(a5)
    28c0:	00fa8023          	sb	a5,0(s5)
    28c4:	0a85                	c.addi	s5,1
    28c6:	bd2d                	c.j	2700 <__printf_float_impl+0x1fc>
    28c8:	cc1c625b          	bnec	s8,65,258c <__printf_float_impl+0x88>
    28cc:	05000793          	li	a5,80
    28d0:	00f50023          	sb	a5,0(a0)
    28d4:	5732                	c.lwsp	a4,44(sp)
    28d6:	02b00793          	li	a5,43
    28da:	00075463          	bgez	a4,28e2 <__printf_float_impl+0x3de>
    28de:	02d00793          	li	a5,45
    28e2:	00f500a3          	sb	a5,1(a0)
    28e6:	5732                	c.lwsp	a4,44(sp)
    28e8:	4685                	c.li	a3,1
    28ea:	40e007b3          	neg	a5,a4
    28ee:	f2e787ff          	maxw	a5,a5,a4
    28f2:	00279713          	slli	a4,a5,0x2
    28f6:	75d7b7db          	bfos	a5,a5,29,29
    28fa:	bd15                	c.j	272e <__printf_float_impl+0x22a>

000028fc <strcpy>:
    28fc:	832a                	c.mv	t1,a0
    28fe:	00b566b3          	or	a3,a0,a1
    2902:	8a8d                	c.andi	a3,3
    2904:	ee91                	c.bnez	a3,2920 <strcpy+0x24>
    2906:	419c                	c.lw	a5,0(a1)
    2908:	2007875b          	ffb	a4,a5,zero
    290c:	00071a63          	bnez	a4,2920 <strcpy+0x24>
    2910:	0591                	c.addi	a1,4
    2912:	c11c                	c.sw	a5,0(a0)
    2914:	0511                	c.addi	a0,4
    2916:	419c                	c.lw	a5,0(a1)
    2918:	2007875b          	ffb	a4,a5,zero
    291c:	fe070ae3          	beqz	a4,2910 <strcpy+0x14>
    2920:	0005c683          	lbu	a3,0(a1)
    2924:	0585                	c.addi	a1,1
    2926:	00d50023          	sb	a3,0(a0)
    292a:	0505                	c.addi	a0,1
    292c:	faf5                	c.bnez	a3,2920 <strcpy+0x24>
    292e:	851a                	c.mv	a0,t1
    2930:	8082                	c.jr	ra

00002932 <strnlen>:
    2932:	95aa                	c.add	a1,a0
    2934:	87aa                	c.mv	a5,a0
    2936:	00b78563          	beq	a5,a1,2940 <strnlen+0xe>
    293a:	0007c703          	lbu	a4,0(a5)
    293e:	e701                	c.bnez	a4,2946 <strnlen+0x14>
    2940:	40a78533          	sub	a0,a5,a0
    2944:	8082                	c.jr	ra
    2946:	0785                	c.addi	a5,1
    2948:	b7fd                	c.j	2936 <strnlen+0x4>
    294a:	0001                	c.nop

0000294c <__lshrdi3>:
    294c:	87ae                	c.mv	a5,a1
    294e:	c60d                	c.beqz	a2,2978 <__lshrdi3+0x2c>
    2950:	02000593          	li	a1,32
    2954:	8d91                	c.sub	a1,a2
    2956:	00b05b63          	blez	a1,296c <__lshrdi3+0x20>
    295a:	00b79733          	sll	a4,a5,a1
    295e:	00c55533          	srl	a0,a0,a2
    2962:	00c7d5b3          	srl	a1,a5,a2
    2966:	8d59                	c.or	a0,a4
    2968:	00008067          	ret
    296c:	fe060513          	addi	a0,a2,-32
    2970:	4581                	c.li	a1,0
    2972:	00a7d533          	srl	a0,a5,a0
    2976:	8082                	c.jr	ra
    2978:	8082                	c.jr	ra
    297a:	0001                	c.nop

0000297c <__ashldi3>:
    297c:	87aa                	c.mv	a5,a0
    297e:	c60d                	c.beqz	a2,29a8 <__ashldi3+0x2c>
    2980:	02000713          	li	a4,32
    2984:	8f11                	c.sub	a4,a2
    2986:	00e05b63          	blez	a4,299c <__ashldi3+0x20>
    298a:	00e55733          	srl	a4,a0,a4
    298e:	00c595b3          	sll	a1,a1,a2
    2992:	00c51533          	sll	a0,a0,a2
    2996:	8dd9                	c.or	a1,a4
    2998:	00008067          	ret
    299c:	fe060593          	addi	a1,a2,-32
    29a0:	4501                	c.li	a0,0
    29a2:	00b795b3          	sll	a1,a5,a1
    29a6:	8082                	c.jr	ra
    29a8:	8082                	c.jr	ra
    29aa:	0001                	c.nop

000029ac <__riscv_save_12>:
    29ac:	7139                	c.addi16sp	sp,-64
    29ae:	4301                	c.li	t1,0
    29b0:	c66e                	c.swsp	s11,12(sp)
    29b2:	a019                	c.j	29b8 <__riscv_save_10+0x4>

000029b4 <__riscv_save_10>:
    29b4:	7139                	c.addi16sp	sp,-64
    29b6:	5341                	c.li	t1,-16
    29b8:	c86a                	c.swsp	s10,16(sp)
    29ba:	ca66                	c.swsp	s9,20(sp)
    29bc:	cc62                	c.swsp	s8,24(sp)
    29be:	ce5e                	c.swsp	s7,28(sp)
    29c0:	a019                	c.j	29c6 <__riscv_save_4+0x4>

000029c2 <__riscv_save_4>:
    29c2:	7139                	c.addi16sp	sp,-64
    29c4:	5301                	c.li	t1,-32
    29c6:	d05a                	c.swsp	s6,32(sp)
    29c8:	d256                	c.swsp	s5,36(sp)
    29ca:	d452                	c.swsp	s4,40(sp)
    29cc:	d64e                	c.swsp	s3,44(sp)
    29ce:	d84a                	c.swsp	s2,48(sp)
    29d0:	da26                	c.swsp	s1,52(sp)
    29d2:	dc22                	c.swsp	s0,56(sp)
    29d4:	de06                	c.swsp	ra,60(sp)
    29d6:	40610133          	sub	sp,sp,t1
    29da:	8282                	c.jr	t0

000029dc <__riscv_save_0>:
    29dc:	1141                	c.addi	sp,-16
    29de:	c04a                	c.swsp	s2,0(sp)
    29e0:	c226                	c.swsp	s1,4(sp)
    29e2:	c422                	c.swsp	s0,8(sp)
    29e4:	c606                	c.swsp	ra,12(sp)
    29e6:	8282                	c.jr	t0

000029e8 <__riscv_restore_12>:
    29e8:	4db2                	c.lwsp	s11,12(sp)
    29ea:	0141                	c.addi	sp,16

000029ec <__riscv_restore_10>:
    29ec:	4d02                	c.lwsp	s10,0(sp)
    29ee:	4c92                	c.lwsp	s9,4(sp)
    29f0:	4c22                	c.lwsp	s8,8(sp)
    29f2:	4bb2                	c.lwsp	s7,12(sp)
    29f4:	0141                	c.addi	sp,16

000029f6 <__riscv_restore_4>:
    29f6:	4b02                	c.lwsp	s6,0(sp)
    29f8:	4a92                	c.lwsp	s5,4(sp)
    29fa:	4a22                	c.lwsp	s4,8(sp)
    29fc:	49b2                	c.lwsp	s3,12(sp)
    29fe:	0141                	c.addi	sp,16

00002a00 <__riscv_restore_0>:
    2a00:	4902                	c.lwsp	s2,0(sp)
    2a02:	4492                	c.lwsp	s1,4(sp)
    2a04:	4422                	c.lwsp	s0,8(sp)
    2a06:	40b2                	c.lwsp	ra,12(sp)
    2a08:	0141                	c.addi	sp,16
    2a0a:	8082                	c.jr	ra
